(dp0
S'5 7 1 6 4 3 9 2 8 4 8 2 9 5 7 3 6 1 9 3 6 8 1 2 5 7 4 8 5 9 3 2 6 4 1 7 2 4 7 1 9 5 6 8 3 1 6 3 4 7 8 2 9 5 7 1 5 2 6 4 8 3 9 6 9 8 5 3 1 7 4 2 3 2 4 7 8 9 1 5 6'
p1
(lp2
(S'5 0 0 6 4 0 9 0 8 0 0 2 0 0 0 0 0 0 9 0 0 0 0 2 0 0 0 8 0 0 3 2 0 0 1 0 0 4 0 1 0 5 0 8 0 0 6 0 0 7 8 0 0 5 0 0 0 2 0 0 0 0 9 0 0 0 0 0 0 7 0 0 3 0 4 0 8 9 0 0 6'
p3
(ignome_sudoku.sudoku
DifficultyRating
p4
(dp5
S'instant_elimination_fillable'
p6
F0.0
sS'guesses'
p7
ccopy_reg
_reconstructor
p8
(cgnome_sudoku.sudoku
GuessList
p9
c__builtin__
list
p10
(lp11
tp12
Rp13
sS'proportion_instant_elimination_fillable'
p14
F0.0
sS'elimination_ease'
p15
F3.7746031746031745
sS'fill_must_fillables'
p16
(dp17
I0
c__builtin__
set
p18
((lp19
(I7
I5
I9
tp20
a(I7
I0
I2
tp21
a(I0
I1
I4
tp22
a(I6
I6
I8
tp23
atp24
Rp25
sI1
g18
((lp26
(I3
I1
I9
tp27
a(I4
I4
I9
tp28
a(I2
I2
I6
tp29
atp30
Rp31
sI2
g18
((lp32
(I2
I7
I8
tp33
a(I1
I1
I8
tp34
a(I7
I1
I6
tp35
a(I5
I3
I6
tp36
a(I3
I2
I8
tp37
a(I6
I4
I6
tp38
atp39
Rp40
sI3
g18
((lp41
(I1
I7
I9
tp42
a(I7
I2
I7
tp43
a(I2
I3
I9
tp44
atp45
Rp46
sI4
g18
((lp47
(I2
I6
I5
tp48
a(I5
I1
I7
tp49
a(I1
I8
I2
tp50
a(I1
I3
I5
tp51
a(I8
I2
I4
tp52
atp53
Rp54
sI5
g18
((lp55
(I6
I8
I1
tp56
a(I6
I5
I2
tp57
a(I8
I7
I2
tp58
atp59
Rp60
sI6
g18
((lp61
(I0
I4
I2
tp62
a(I8
I4
I3
tp63
a(I8
I1
I1
tp64
a(I2
I5
I3
tp65
atp66
Rp67
sI7
g18
((lp68
(I0
I6
I7
tp69
a(I2
I4
I7
tp70
a(I1
I6
I1
tp71
a(I2
I0
I1
tp72
atp73
Rp74
sI8
g18
((lp75
(I4
I6
I6
tp76
a(I5
I7
I1
tp77
a(I1
I0
I7
tp78
a(I4
I2
I1
tp79
atp80
Rp81
sI9
g18
((lp82
(I6
I2
I5
tp83
a(I6
I1
I3
tp84
a(I7
I7
I4
tp85
a(I5
I6
I4
tp86
a(I7
I6
I3
tp87
a(I4
I7
I3
tp88
a(I4
I1
I5
tp89
atp90
Rp91
ssS'instant_fill_fillable'
p92
F4.0
sS'fillable_ease'
p93
F11.965873015873015
sS'squares_filled'
p94
I53
sS'value'
p95
F0.70300988319856239
sS'backtraces'
p96
I0
sS'proportion_instant_fill_fillable'
p97
F0.075471698113207544
sS'elimination_fillables'
p98
(dp99
I0
g18
((lp100
tp101
Rp102
sI1
g18
((lp103
(I7
I8
I5
tp104
a(I3
I5
I4
tp105
atp106
Rp107
sI2
g18
((lp108
(I3
I7
I5
tp109
a(I3
I8
I7
tp110
a(I5
I3
I6
tp111
atp112
Rp113
sI3
g18
((lp114
(I6
I3
I4
tp115
atp116
Rp117
sI4
g18
((lp118
(I8
I3
I7
tp119
atp120
Rp121
sI5
g18
((lp122
(I6
I8
I1
tp123
atp124
Rp125
sI6
g18
((lp126
(I8
I4
I3
tp127
a(I0
I5
I1
tp128
atp129
Rp130
sI7
g18
((lp131
(I0
I7
I6
tp132
a(I2
I4
I7
tp133
atp134
Rp135
sI8
g18
((lp136
(I5
I0
I3
tp137
a(I1
I2
I3
tp138
atp139
Rp140
sI9
g18
((lp141
(I6
I2
I5
tp142
a(I4
I7
I3
tp143
a(I5
I6
I4
tp144
a(I4
I1
I5
tp145
atp146
Rp147
ssbtp148
a(S'0 7 1 6 0 0 9 0 0 4 0 0 0 0 0 3 0 1 0 0 0 8 0 2 0 7 0 0 5 0 0 0 0 4 0 0 2 0 0 1 0 5 0 0 3 0 0 3 0 0 0 0 9 0 0 1 0 2 0 4 0 0 0 6 0 8 0 0 0 0 0 2 0 0 4 0 0 9 1 5 0'
p149
(ignome_sudoku.sudoku
DifficultyRating
p150
(dp151
g6
F3.0
sg7
g8
(g9
g10
(lp152
tp153
Rp154
sg14
F0.056603773584905662
sg15
F6.2666666666666657
sg16
(dp155
I0
g18
((lp156
(I1
I8
I2
tp157
a(I3
I5
I4
tp158
a(I5
I7
I1
tp159
a(I7
I3
I1
tp160
a(I8
I6
I9
tp161
a(I7
I7
I4
tp162
a(I4
I2
I1
tp163
a(I1
I7
I9
tp164
a(I6
I5
I2
tp165
a(I2
I1
I2
tp166
a(I7
I0
I2
tp167
a(I0
I5
I1
tp168
atp169
Rp170
sI1
g18
((lp171
(I6
I2
I5
tp172
a(I4
I0
I4
tp173
a(I1
I4
I4
tp174
a(I4
I3
I2
tp175
a(I1
I2
I3
tp176
a(I7
I6
I3
tp177
a(I8
I2
I4
tp178
a(I8
I5
I5
tp179
atp180
Rp181
sI2
g18
((lp182
(I3
I3
I3
tp183
a(I2
I6
I5
tp184
a(I4
I5
I7
tp185
a(I0
I8
I3
tp186
a(I7
I1
I6
tp187
a(I0
I0
I5
tp188
a(I8
I3
I7
tp189
a(I2
I2
I6
tp190
atp191
Rp192
sI3
g18
((lp193
(I2
I4
I7
tp194
a(I2
I3
I9
tp195
a(I3
I1
I9
tp196
a(I4
I8
I8
tp197
a(I0
I6
I7
tp198
a(I1
I1
I8
tp199
a(I6
I6
I8
tp200
a(I4
I4
I9
tp201
a(I1
I5
I6
tp202
a(I0
I3
I8
tp203
a(I7
I4
I8
tp204
a(I5
I3
I6
tp205
a(I4
I7
I3
tp206
a(I8
I8
I6
tp207
a(I3
I8
I7
tp208
a(I6
I4
I6
tp209
atp210
Rp211
sI4
g18
((lp212
(I4
I1
I5
tp213
a(I4
I6
I6
tp214
a(I5
I5
I8
tp215
atp216
Rp217
ssg92
F12.0
sg93
F23.266666666666669
sg94
I53
sg95
F0.44276729559748418
sg96
I0
sg97
F0.22641509433962265
sg98
(dp218
I0
g18
((lp219
(I5
I1
I7
tp220
a(I5
I0
I3
tp221
a(I6
I7
I7
tp222
atp223
Rp224
sI1
g18
((lp225
tp226
Rp227
sI2
g18
((lp228
(I0
I2
I9
tp229
a(I8
I0
I8
tp230
atp231
Rp232
sI3
g18
((lp233
(I2
I3
I9
tp234
a(I0
I6
I7
tp235
a(I1
I1
I8
tp236
a(I7
I4
I8
tp237
a(I0
I3
I8
tp238
a(I3
I7
I5
tp239
a(I8
I8
I6
tp240
a(I3
I8
I7
tp241
atp242
Rp243
sI4
g18
((lp244
(I4
I1
I5
tp245
a(I4
I6
I6
tp246
a(I5
I5
I8
tp247
atp248
Rp249
ssbtp250
asS'4 7 6 3 2 5 9 1 8 3 8 1 7 4 9 2 5 6 9 5 2 8 6 1 4 3 7 8 6 9 5 1 4 7 2 3 2 1 7 6 9 3 8 4 5 5 4 3 2 7 8 6 9 1 1 9 5 4 8 6 3 7 2 6 2 4 1 3 7 5 8 9 7 3 8 9 5 2 1 6 4'
p251
(lp252
(S'0 7 6 3 0 5 9 0 8 0 0 1 0 0 0 0 0 0 0 0 2 0 0 1 0 3 0 0 0 0 5 1 0 7 0 0 2 0 0 0 0 0 0 0 5 0 0 3 0 7 8 0 0 0 0 9 0 4 0 0 3 0 0 0 0 0 0 0 0 5 0 0 7 0 8 9 0 2 1 6 0'
p253
(ignome_sudoku.sudoku
DifficultyRating
p254
(dp255
S'instant_elimination_fillable'
p256
F5.0
sS'guesses'
p257
g8
(g9
g10
(lp258
tp259
Rp260
sS'proportion_instant_elimination_fillable'
p261
F0.094339622641509441
sS'elimination_ease'
p262
F10.435714285714287
sS'fill_must_fillables'
p263
(dp264
I0
g18
((lp265
(I1
I7
I2
tp266
a(I2
I4
I7
tp267
a(I7
I0
I1
tp268
a(I3
I7
I1
tp269
a(I2
I6
I5
tp270
a(I7
I1
I5
tp271
a(I6
I4
I8
tp272
a(I0
I6
I1
tp273
a(I8
I3
I3
tp274
a(I3
I5
I2
tp275
a(I8
I5
I1
tp276
atp277
Rp278
sI1
g18
((lp279
(I8
I7
I9
tp280
a(I2
I3
I9
tp281
a(I6
I1
I2
tp282
a(I1
I4
I1
tp283
a(I4
I8
I5
tp284
a(I4
I0
I2
tp285
a(I0
I7
I6
tp286
a(I7
I3
I2
tp287
a(I6
I5
I6
tp288
atp289
Rp290
sI2
g18
((lp291
(I0
I1
I3
tp292
a(I1
I3
I6
tp293
a(I8
I6
I2
tp294
a(I7
I5
I9
tp295
a(I6
I2
I4
tp296
atp297
Rp298
sI3
g18
((lp299
(I1
I5
I4
tp300
a(I0
I2
I9
tp301
a(I7
I4
I4
tp302
a(I4
I1
I4
tp303
a(I3
I2
I8
tp304
a(I1
I2
I5
tp305
atp306
Rp307
sI4
g18
((lp308
(I4
I4
I9
tp309
a(I8
I2
I7
tp310
a(I5
I1
I9
tp311
atp312
Rp313
sI5
g18
((lp314
(I4
I7
I3
tp315
a(I5
I6
I6
tp316
a(I5
I4
I3
tp317
atp318
Rp319
sI6
g18
((lp320
(I7
I7
I8
tp321
a(I5
I7
I7
tp322
a(I7
I6
I7
tp323
atp324
Rp325
ssS'instant_fill_fillable'
p326
F11.0
sS'fillable_ease'
p327
F20.195238095238096
sS'squares_filled'
p328
I53
sS'value'
p329
F0.42205750224618144
sS'backtraces'
p330
I0
sS'proportion_instant_fill_fillable'
p331
F0.20754716981132076
sS'elimination_fillables'
p332
(dp333
I0
g18
((lp334
(I2
I6
I5
tp335
a(I3
I4
I6
tp336
a(I8
I8
I4
tp337
a(I2
I7
I4
tp338
a(I0
I0
I4
tp339
atp340
Rp341
sI1
g18
((lp342
(I4
I0
I2
tp343
a(I2
I3
I9
tp344
a(I1
I8
I3
tp345
atp346
Rp347
sI2
g18
((lp348
(I0
I3
I8
tp349
a(I1
I1
I8
tp350
a(I5
I3
I4
tp351
a(I6
I2
I4
tp352
a(I0
I5
I5
tp353
atp354
Rp355
sI3
g18
((lp356
(I1
I5
I4
tp357
a(I3
I1
I7
tp358
a(I1
I2
I5
tp359
a(I7
I4
I4
tp360
a(I0
I2
I9
tp361
atp362
Rp363
sI4
g18
((lp364
(I8
I1
I6
tp365
a(I4
I2
I6
tp366
atp367
Rp368
sI5
g18
((lp369
(I5
I4
I3
tp370
a(I4
I6
I8
tp371
atp372
Rp373
sI6
g18
((lp374
(I5
I7
I7
tp375
a(I7
I6
I7
tp376
atp377
Rp378
ssbtp379
a(S'0 7 6 0 0 5 0 0 8 0 8 0 0 0 0 0 5 0 0 0 2 0 6 1 4 3 0 8 0 0 0 1 0 0 0 0 0 0 0 6 0 3 0 0 0 0 0 0 0 7 0 0 0 1 0 9 5 4 8 0 3 0 0 0 2 0 0 0 0 0 8 0 7 0 0 9 0 0 1 6 0'
p380
(ignome_sudoku.sudoku
DifficultyRating
p381
(dp382
g256
F2.0
sg257
g8
(g9
g10
(lp383
tp384
Rp385
sg261
F0.037735849056603772
sg262
F4.865945165945166
sg263
(dp386
I0
g18
((lp387
(I1
I4
I1
tp388
a(I7
I0
I1
tp389
a(I3
I7
I1
tp390
a(I5
I5
I8
tp391
a(I6
I4
I8
tp392
a(I0
I6
I1
tp393
a(I3
I2
I8
tp394
a(I8
I3
I3
tp395
a(I2
I8
I8
tp396
atp397
Rp398
sI1
g18
((lp399
(I5
I6
I6
tp400
a(I2
I1
I1
tp401
a(I8
I2
I7
tp402
a(I3
I1
I7
tp403
a(I8
I1
I6
tp404
a(I0
I7
I6
tp405
atp406
Rp407
sI2
g18
((lp408
(I5
I7
I7
tp409
a(I7
I6
I7
tp410
a(I3
I0
I3
tp411
atp412
Rp413
sI3
g18
((lp414
(I6
I3
I7
tp415
a(I2
I4
I7
tp416
a(I0
I1
I3
tp417
atp418
Rp419
sI4
g18
((lp420
(I1
I3
I6
tp421
a(I6
I5
I6
tp422
a(I3
I3
I5
tp423
atp424
Rp425
sI5
g18
((lp426
(I6
I7
I5
tp427
a(I3
I5
I2
tp428
a(I7
I3
I2
tp429
a(I8
I4
I5
tp430
a(I0
I5
I5
tp431
atp432
Rp433
sI6
g18
((lp434
(I0
I4
I2
tp435
a(I8
I7
I9
tp436
a(I4
I8
I5
tp437
atp438
Rp439
sI7
g18
((lp440
(I1
I5
I4
tp441
a(I2
I5
I3
tp442
a(I2
I7
I4
tp443
a(I1
I8
I3
tp444
atp445
Rp446
sI8
g18
((lp447
(I5
I3
I4
tp448
a(I7
I5
I9
tp449
a(I2
I3
I9
tp450
a(I7
I4
I4
tp451
atp452
Rp453
sI9
g18
((lp454
(I4
I1
I4
tp455
a(I4
I4
I9
tp456
a(I5
I1
I9
tp457
atp458
Rp459
sI10
g18
((lp460
(I4
I0
I2
tp461
a(I6
I0
I9
tp462
a(I6
I1
I2
tp463
atp464
Rp465
ssg326
F9.0
sg327
F17.129076479076478
sg328
I53
sg329
F0.58499959160336523
sg330
I0
sg331
F0.16981132075471697
sg332
(dp466
I0
g18
((lp467
(I1
I2
I5
tp468
a(I5
I8
I2
tp469
atp470
Rp471
sI1
g18
((lp472
(I0
I2
I9
tp473
atp474
Rp475
sI2
g18
((lp476
(I5
I7
I7
tp477
a(I8
I6
I2
tp478
atp479
Rp480
sI3
g18
((lp481
(I0
I0
I4
tp482
atp483
Rp484
sI4
g18
((lp485
tp486
Rp487
sI5
g18
((lp488
(I3
I5
I2
tp489
atp490
Rp491
sI6
g18
((lp492
(I4
I7
I3
tp493
a(I8
I8
I4
tp494
a(I0
I4
I2
tp495
atp496
Rp497
sI7
g18
((lp498
(I1
I8
I3
tp499
a(I2
I7
I4
tp500
atp501
Rp502
sI8
g18
((lp503
(I7
I5
I9
tp504
a(I2
I3
I9
tp505
atp506
Rp507
sI9
g18
((lp508
(I4
I4
I9
tp509
a(I5
I1
I9
tp510
atp511
Rp512
sI10
g18
((lp513
(I4
I0
I2
tp514
a(I6
I1
I2
tp515
atp516
Rp517
ssbtp518
a(S'0 7 6 3 0 0 9 0 0 3 8 0 7 4 0 0 5 0 9 0 2 0 0 0 0 0 0 0 0 9 0 0 0 0 0 0 0 1 0 6 0 3 0 4 0 0 0 0 0 0 0 6 0 0 0 0 0 0 0 0 3 0 2 0 2 0 0 3 7 0 8 9 0 0 8 0 0 2 1 6 0'
p519
(ignome_sudoku.sudoku
DifficultyRating
p520
(dp521
g256
F3.0
sg257
g8
(g9
g10
(lp522
tp523
Rp524
sg261
F0.056603773584905662
sg262
F7.7285714285714286
sg263
(dp525
I0
g18
((lp526
(I2
I5
I3
tp527
a(I5
I1
I9
tp528
a(I1
I8
I3
tp529
a(I6
I1
I2
tp530
a(I4
I4
I9
tp531
a(I7
I5
I9
tp532
a(I4
I0
I2
tp533
a(I0
I7
I6
tp534
atp535
Rp536
sI1
g18
((lp537
(I0
I4
I2
tp538
a(I2
I4
I7
tp539
a(I1
I6
I9
tp540
a(I1
I3
I6
tp541
a(I0
I8
I7
tp542
a(I3
I7
I1
tp543
a(I0
I6
I1
tp544
a(I3
I8
I9
tp545
a(I7
I3
I2
tp546
a(I8
I1
I6
tp547
atp548
Rp549
sI2
g18
((lp550
(I8
I8
I4
tp551
a(I7
I2
I3
tp552
a(I2
I6
I5
tp553
a(I6
I7
I5
tp554
a(I8
I3
I3
tp555
a(I3
I5
I2
tp556
atp557
Rp558
sI3
g18
((lp559
(I6
I2
I4
tp560
a(I8
I4
I5
tp561
a(I8
I5
I1
tp562
a(I2
I7
I4
tp563
a(I0
I0
I4
tp564
atp565
Rp566
sI4
g18
((lp567
(I1
I5
I4
tp568
a(I4
I5
I7
tp569
a(I5
I0
I5
tp570
a(I6
I3
I7
tp571
a(I8
I2
I7
tp572
a(I1
I2
I5
tp573
atp574
Rp575
sI5
g18
((lp576
(I0
I5
I5
tp577
a(I3
I3
I5
tp578
atp579
Rp580
sI6
g18
((lp581
(I0
I3
I8
tp582
a(I3
I6
I4
tp583
a(I5
I3
I4
tp584
a(I4
I6
I8
tp585
atp586
Rp587
sI7
g18
((lp588
(I5
I6
I6
tp589
a(I5
I2
I1
tp590
a(I4
I2
I6
tp591
atp592
Rp593
ssg326
F8.0
sg327
F18.729761904761904
sg328
I53
sg329
F0.50078616352201266
sg330
I0
sg331
F0.15094339622641509
sg332
(dp594
I0
g18
((lp595
(I6
I1
I2
tp596
a(I2
I1
I1
tp597
a(I7
I6
I7
tp598
atp599
Rp600
sI1
g18
((lp601
(I4
I8
I5
tp602
a(I8
I1
I6
tp603
a(I7
I0
I1
tp604
atp605
Rp606
sI2
g18
((lp607
(I7
I2
I3
tp608
a(I8
I8
I4
tp609
atp610
Rp611
sI3
g18
((lp612
(I8
I0
I8
tp613
a(I6
I4
I8
tp614
a(I2
I7
I4
tp615
atp616
Rp617
sI4
g18
((lp618
(I6
I3
I7
tp619
a(I8
I2
I7
tp620
a(I1
I2
I5
tp621
a(I5
I0
I5
tp622
atp623
Rp624
sI5
g18
((lp625
(I3
I2
I8
tp626
a(I5
I5
I8
tp627
atp628
Rp629
sI6
g18
((lp630
(I3
I6
I4
tp631
a(I0
I3
I8
tp632
a(I4
I3
I1
tp633
atp634
Rp635
sI7
g18
((lp636
(I5
I6
I6
tp637
a(I4
I2
I6
tp638
atp639
Rp640
ssbtp641
a(S'0 7 6 0 0 5 0 1 0 0 8 0 0 4 0 0 0 6 9 0 2 0 0 0 4 0 0 0 0 0 5 0 0 0 2 0 0 1 7 0 0 0 8 4 0 0 4 0 0 0 8 0 0 0 0 0 5 0 0 0 3 0 2 6 0 0 0 3 0 0 8 0 0 3 0 9 0 0 1 6 0'
p642
(ignome_sudoku.sudoku
DifficultyRating
p643
(dp644
g256
F2.0
sg257
g8
(g9
g10
(lp645
tp646
Rp647
sg261
F0.037735849056603772
sg262
F5.5452380952380951
sg263
(dp648
I0
g18
((lp649
(I1
I7
I2
tp650
a(I5
I3
I4
tp651
a(I1
I3
I6
tp652
a(I4
I8
I5
tp653
a(I0
I0
I4
tp654
a(I1
I2
I5
tp655
atp656
Rp657
sI1
g18
((lp658
(I3
I6
I4
tp659
a(I6
I5
I6
tp660
a(I5
I8
I2
tp661
atp662
Rp663
sI2
g18
((lp664
(I4
I6
I8
tp665
a(I0
I8
I7
tp666
atp667
Rp668
sI3
g18
((lp669
(I0
I3
I8
tp670
a(I5
I6
I6
tp671
a(I2
I8
I8
tp672
a(I2
I7
I4
tp673
a(I3
I0
I3
tp674
atp675
Rp676
sI4
g18
((lp677
(I3
I2
I8
tp678
a(I5
I4
I3
tp679
a(I2
I1
I1
tp680
a(I8
I0
I8
tp681
atp682
Rp683
sI5
g18
((lp684
(I3
I4
I6
tp685
a(I5
I1
I9
tp686
a(I4
I2
I6
tp687
atp688
Rp689
sI6
g18
((lp690
(I6
I0
I9
tp691
a(I7
I5
I9
tp692
a(I5
I2
I1
tp693
a(I3
I1
I7
tp694
a(I6
I3
I7
tp695
a(I5
I7
I7
tp696
atp697
Rp698
sI7
g18
((lp699
(I0
I4
I2
tp700
a(I4
I5
I7
tp701
a(I2
I3
I9
tp702
a(I6
I1
I2
tp703
a(I4
I4
I9
tp704
a(I3
I7
I1
tp705
a(I6
I7
I5
tp706
a(I3
I5
I2
tp707
a(I8
I7
I9
tp708
atp709
Rp710
sI8
g18
((lp711
(I0
I5
I5
tp712
a(I4
I3
I1
tp713
a(I8
I5
I1
tp714
a(I8
I3
I3
tp715
atp716
Rp717
ssg326
F6.0
sg327
F13.143253968253969
sg328
I53
sg329
F0.64738694219826298
sg330
I0
sg331
F0.11320754716981132
sg332
(dp718
I0
g18
((lp719
(I1
I6
I9
tp720
a(I1
I2
I5
tp721
atp722
Rp723
sI1
g18
((lp724
(I7
I6
I7
tp725
atp726
Rp727
sI2
g18
((lp728
(I7
I2
I3
tp729
a(I8
I8
I4
tp730
atp731
Rp732
sI3
g18
((lp733
(I2
I8
I8
tp734
a(I0
I6
I1
tp735
atp736
Rp737
sI4
g18
((lp738
(I0
I1
I3
tp739
atp740
Rp741
sI5
g18
((lp742
(I8
I2
I7
tp743
atp744
Rp745
sI6
g18
((lp746
(I4
I0
I2
tp747
a(I7
I1
I5
tp748
a(I5
I2
I1
tp749
atp750
Rp751
sI7
g18
((lp752
(I2
I5
I3
tp753
a(I6
I1
I2
tp754
a(I4
I4
I9
tp755
a(I3
I7
I1
tp756
a(I6
I7
I5
tp757
a(I8
I4
I5
tp758
atp759
Rp760
sI8
g18
((lp761
(I0
I5
I5
tp762
a(I4
I3
I1
tp763
a(I8
I5
I1
tp764
atp765
Rp766
ssbtp767
a(S'0 7 0 0 2 5 0 1 8 3 0 0 0 0 9 2 0 0 0 0 0 0 6 0 4 3 0 0 0 0 0 0 4 7 2 0 0 0 0 0 0 0 0 0 0 0 4 3 2 0 0 0 0 0 0 9 5 0 8 0 0 0 0 0 0 4 1 0 0 0 0 9 7 3 0 9 5 0 0 6 0'
p768
(ignome_sudoku.sudoku
DifficultyRating
p769
(dp770
g256
F1.0
sg257
g8
(g9
g10
(lp771
(ignome_sudoku.sudoku
Guess
p772
(dp773
S'y'
p774
I4
sS'x'
p775
I6
sS'consequences'
p776
(dp777
(I5
I4
tp778
I8
s(I0
I5
tp779
I6
s(I8
I3
tp780
I5
s(I6
I5
tp781
I8
s(I3
I3
tp782
I6
ssS'children'
p783
(lp784
(ignome_sudoku.sudoku
Guess
p785
(dp786
g774
I3
sg775
I1
sg776
(dp787
(I0
I7
tp788
I6
ssg783
(lp789
(ignome_sudoku.sudoku
Guess
p790
(dp791
g774
I5
sg775
I5
sg776
(dp792
(I0
I4
tp793
I2
ssg783
(lp794
sS'val'
p795
I7
sbasg795
I1
sbasg795
I6
sba(ignome_sudoku.sudoku
Guess
p796
(dp797
g774
I4
sg775
I6
sg776
(dp798
(I8
I3
tp799
I3
s(I1
I3
tp800
I6
s(I5
I5
tp801
I8
s(I4
I5
tp802
I7
s(I3
I4
tp803
I6
s(I5
I7
tp804
I7
s(I4
I7
tp805
I3
s(I1
I4
tp806
I1
s(I0
I5
tp807
I5
s(I0
I7
tp808
I6
s(I4
I3
tp809
I1
s(I1
I7
tp810
I2
s(I5
I4
tp811
I3
s(I0
I4
tp812
I2
s(I8
I4
tp813
I5
s(I8
I5
tp814
I1
s(I6
I5
tp815
I6
s(I3
I3
tp816
I5
ssg783
(lp817
sg795
I8
sbatp818
Rp819
sg261
F0.018867924528301886
sg262
F3.3666666666666671
sg263
(dp820
I0
g18
((lp821
(I3
I6
I4
tp822
a(I2
I4
I7
tp823
a(I8
I8
I4
tp824
a(I3
I0
I3
tp825
a(I4
I1
I4
tp826
a(I6
I0
I9
tp827
a(I0
I0
I4
tp828
atp829
Rp830
sI1
g18
((lp831
(I2
I2
I2
tp832
a(I8
I6
I2
tp833
a(I7
I4
I4
tp834
a(I2
I0
I6
tp835
a(I5
I2
I1
tp836
a(I8
I1
I6
tp837
atp838
Rp839
sI2
g18
((lp840
(I7
I5
I9
tp841
a(I3
I1
I7
tp842
a(I8
I2
I7
tp843
a(I2
I3
I9
tp844
a(I0
I2
I9
tp845
atp846
Rp847
sI3
g18
((lp848
(I3
I2
I8
tp849
a(I7
I7
I8
tp850
a(I4
I4
I9
tp851
a(I1
I2
I5
tp852
a(I6
I7
I5
tp853
atp854
Rp855
sI4
g18
((lp856
(I6
I6
I3
tp857
a(I2
I8
I8
tp858
atp859
Rp860
sI5
g18
((lp861
(I1
I1
I8
tp862
a(I2
I1
I1
tp863
a(I0
I6
I1
tp864
atp865
Rp866
sI6
g18
((lp867
(I0
I3
I8
tp868
atp869
Rp870
ssg326
F7.0
sg327
F13.959523809523809
sg328
I53
sg329
F0.67309074573225514
sg330
I2
sg331
F0.13207547169811321
sg332
(dp871
I0
g18
((lp872
(I5
I8
I2
tp873
atp874
Rp875
sI1
g18
((lp876
(I7
I6
I7
tp877
a(I2
I0
I6
tp878
atp879
Rp880
sI2
g18
((lp881
(I7
I1
I5
tp882
atp883
Rp884
sI3
g18
((lp885
(I3
I2
I8
tp886
a(I7
I7
I8
tp887
atp888
Rp889
sI4
g18
((lp890
(I6
I8
I1
tp891
atp892
Rp893
sI5
g18
((lp894
(I2
I1
I1
tp895
a(I5
I6
I6
tp896
atp897
Rp898
sI6
g18
((lp899
tp900
Rp901
ssbtp902
a(S'0 0 0 3 0 5 9 0 0 3 8 0 0 0 0 2 0 6 9 5 0 0 6 0 0 0 0 0 0 9 0 1 4 0 0 3 0 0 0 0 0 0 0 0 0 5 0 0 2 7 0 6 0 0 0 0 0 0 8 0 0 7 2 6 0 4 0 0 0 0 8 9 0 0 8 9 0 2 0 0 0'
p903
(ignome_sudoku.sudoku
DifficultyRating
p904
(dp905
g256
F1.0
sg257
g8
(g9
g10
(lp906
tp907
Rp908
sg261
F0.018867924528301886
sg262
F4.1290404040404036
sg263
(dp909
I0
g18
((lp910
(I7
I8
I6
tp911
a(I2
I2
I2
tp912
a(I1
I6
I9
tp913
a(I1
I7
I2
tp914
a(I2
I6
I5
tp915
a(I8
I0
I8
tp916
a(I7
I1
I5
tp917
a(I4
I0
I2
tp918
atp919
Rp920
sI1
g18
((lp921
(I5
I5
I8
tp922
a(I7
I2
I3
tp923
a(I1
I8
I3
tp924
atp925
Rp926
sI2
g18
((lp927
(I3
I2
I8
tp928
a(I0
I4
I2
tp929
a(I7
I5
I9
tp930
a(I2
I5
I3
tp931
atp932
Rp933
sI3
g18
((lp934
(I6
I4
I8
tp935
a(I7
I4
I4
tp936
atp937
Rp938
sI4
g18
((lp939
(I1
I5
I4
tp940
a(I2
I1
I1
tp941
a(I5
I2
I1
tp942
atp943
Rp944
sI5
g18
((lp945
(I6
I8
I1
tp946
a(I1
I4
I1
tp947
a(I3
I7
I1
tp948
atp949
Rp950
sI6
g18
((lp951
(I3
I1
I7
tp952
a(I5
I7
I7
tp953
atp954
Rp955
sI7
g18
((lp956
(I3
I6
I4
tp957
a(I4
I1
I4
tp958
atp959
Rp960
sI8
g18
((lp961
(I4
I4
I9
tp962
a(I6
I2
I4
tp963
a(I5
I6
I6
tp964
a(I8
I8
I4
tp965
atp966
Rp967
sI9
g18
((lp968
(I8
I4
I5
tp969
a(I6
I7
I5
tp970
a(I5
I4
I3
tp971
a(I4
I7
I3
tp972
a(I6
I3
I7
tp973
a(I8
I2
I7
tp974
atp975
Rp976
sI10
g18
((lp977
(I2
I4
I7
tp978
a(I1
I0
I7
tp979
a(I3
I3
I5
tp980
atp981
Rp982
sI11
g18
((lp983
(I2
I0
I6
tp984
atp985
Rp986
ssg326
F8.0
sg327
F14.369552669552672
sg328
I53
sg329
F0.65096994200767777
sg330
I0
sg331
F0.15094339622641509
sg332
(dp987
I0
g18
((lp988
(I0
I6
I1
tp989
atp990
Rp991
sI1
g18
((lp992
(I0
I8
I7
tp993
a(I7
I3
I2
tp994
atp995
Rp996
sI2
g18
((lp997
(I0
I3
I8
tp998
a(I0
I0
I4
tp999
atp1000
Rp1001
sI3
g18
((lp1002
(I7
I0
I1
tp1003
atp1004
Rp1005
sI4
g18
((lp1006
(I8
I5
I1
tp1007
atp1008
Rp1009
sI5
g18
((lp1010
tp1011
Rp1012
sI6
g18
((lp1013
tp1014
Rp1015
sI7
g18
((lp1016
(I5
I1
I9
tp1017
atp1018
Rp1019
sI8
g18
((lp1020
(I6
I6
I3
tp1021
a(I4
I8
I5
tp1022
atp1023
Rp1024
sI9
g18
((lp1025
(I5
I4
I3
tp1026
a(I6
I7
I5
tp1027
a(I8
I2
I7
tp1028
a(I4
I7
I3
tp1029
atp1030
Rp1031
sI10
g18
((lp1032
(I3
I4
I6
tp1033
a(I1
I3
I6
tp1034
atp1035
Rp1036
sI11
g18
((lp1037
(I2
I0
I6
tp1038
atp1039
Rp1040
ssbtp1041
a(S'0 0 6 0 2 5 0 0 8 0 8 0 0 0 9 0 0 6 9 0 0 0 0 0 4 0 0 0 6 0 0 1 0 0 2 3 0 0 0 6 0 3 0 0 0 5 4 0 0 7 0 0 9 0 0 0 5 0 0 0 0 0 2 6 0 0 1 0 0 0 8 0 7 0 0 9 5 0 1 0 0'
p1042
(ignome_sudoku.sudoku
DifficultyRating
p1043
(dp1044
g256
F3.0
sg257
g8
(g9
g10
(lp1045
tp1046
Rp1047
sg261
F0.056603773584905662
sg262
F7.7666666666666666
sg263
(dp1048
I0
g18
((lp1049
(I2
I5
I3
tp1050
a(I2
I3
I9
tp1051
a(I6
I1
I2
tp1052
a(I4
I4
I9
tp1053
a(I3
I3
I5
tp1054
a(I1
I2
I5
tp1055
a(I6
I0
I9
tp1056
a(I5
I2
I1
tp1057
a(I3
I5
I2
tp1058
a(I8
I7
I9
tp1059
a(I6
I5
I6
tp1060
atp1061
Rp1062
sI1
g18
((lp1063
(I2
I2
I2
tp1064
a(I5
I3
I4
tp1065
a(I1
I6
I9
tp1066
a(I7
I4
I4
tp1067
a(I4
I2
I6
tp1068
a(I5
I5
I8
tp1069
a(I6
I7
I5
tp1070
a(I7
I1
I5
tp1071
a(I6
I4
I8
tp1072
a(I6
I3
I7
tp1073
a(I8
I4
I5
tp1074
a(I2
I8
I8
tp1075
a(I0
I4
I2
tp1076
atp1077
Rp1078
sI2
g18
((lp1079
(I6
I6
I3
tp1080
a(I7
I0
I1
tp1081
a(I7
I6
I7
tp1082
a(I4
I6
I8
tp1083
a(I0
I6
I1
tp1084
a(I3
I2
I8
tp1085
a(I5
I7
I7
tp1086
atp1087
Rp1088
sI3
g18
((lp1089
(I7
I8
I6
tp1090
a(I3
I6
I4
tp1091
a(I1
I4
I1
tp1092
a(I5
I8
I2
tp1093
a(I1
I7
I2
tp1094
a(I1
I8
I3
tp1095
a(I2
I1
I1
tp1096
a(I4
I1
I4
tp1097
a(I4
I7
I3
tp1098
a(I5
I6
I6
tp1099
atp1100
Rp1101
sI4
g18
((lp1102
(I3
I1
I7
tp1103
a(I2
I4
I7
tp1104
a(I1
I0
I7
tp1105
a(I0
I0
I4
tp1106
atp1107
Rp1108
sI5
g18
((lp1109
(I3
I0
I3
tp1110
atp1111
Rp1112
ssg326
F11.0
sg327
F23.300000000000001
sg328
I53
sg329
F0.4138364779874214
sg330
I0
sg331
F0.20754716981132076
sg332
(dp1113
I0
g18
((lp1114
(I0
I3
I8
tp1115
a(I8
I5
I1
tp1116
a(I8
I8
I4
tp1117
atp1118
Rp1119
sI1
g18
((lp1120
(I5
I5
I8
tp1121
a(I6
I3
I7
tp1122
a(I8
I2
I7
tp1123
a(I5
I3
I4
tp1124
atp1125
Rp1126
sI2
g18
((lp1127
(I6
I6
I3
tp1128
a(I7
I2
I3
tp1129
a(I2
I7
I4
tp1130
atp1131
Rp1132
sI3
g18
((lp1133
(I7
I8
I6
tp1134
a(I4
I7
I3
tp1135
a(I5
I6
I6
tp1136
a(I3
I6
I4
tp1137
atp1138
Rp1139
sI4
g18
((lp1140
(I2
I4
I7
tp1141
a(I1
I0
I7
tp1142
a(I0
I1
I3
tp1143
atp1144
Rp1145
sI5
g18
((lp1146
(I3
I0
I3
tp1147
atp1148
Rp1149
ssbtp1150
a(S'0 0 6 0 0 5 9 1 8 0 0 0 7 4 0 0 5 0 9 0 0 0 6 0 0 3 0 0 0 0 5 0 0 7 0 0 2 0 0 0 0 0 0 0 5 0 0 3 0 0 8 0 0 0 0 9 0 0 8 0 0 0 2 0 2 0 0 3 7 0 0 0 7 3 8 9 0 0 1 0 0'
p1151
(ignome_sudoku.sudoku
DifficultyRating
p1152
(dp1153
g256
F2.0
sg257
g8
(g9
g10
(lp1154
tp1155
Rp1156
sg261
F0.037735849056603772
sg262
F7.6500000000000004
sg263
(dp1157
I0
g18
((lp1158
(I5
I1
I9
tp1159
a(I6
I6
I3
tp1160
a(I7
I6
I7
tp1161
a(I4
I8
I5
tp1162
a(I3
I2
I8
tp1163
a(I8
I3
I3
tp1164
a(I8
I2
I7
tp1165
a(I1
I0
I7
tp1166
atp1167
Rp1168
sI1
g18
((lp1169
(I4
I5
I7
tp1170
a(I2
I4
I7
tp1171
a(I5
I8
I2
tp1172
a(I3
I0
I3
tp1173
a(I6
I2
I4
tp1174
a(I0
I1
I3
tp1175
a(I6
I7
I5
tp1176
a(I8
I5
I1
tp1177
a(I0
I0
I4
tp1178
a(I5
I4
I3
tp1179
a(I3
I5
I2
tp1180
a(I5
I2
I1
tp1181
atp1182
Rp1183
sI2
g18
((lp1184
(I7
I8
I6
tp1185
a(I2
I2
I2
tp1186
a(I7
I3
I2
tp1187
a(I2
I3
I9
tp1188
a(I1
I1
I8
tp1189
a(I0
I3
I8
tp1190
a(I7
I5
I9
tp1191
a(I6
I4
I8
tp1192
a(I7
I7
I8
tp1193
a(I8
I7
I9
tp1194
atp1195
Rp1196
sI3
g18
((lp1197
(I2
I6
I5
tp1198
a(I1
I5
I4
tp1199
a(I4
I4
I9
tp1200
a(I7
I4
I4
tp1201
a(I0
I5
I5
tp1202
atp1203
Rp1204
sI4
g18
((lp1205
(I3
I6
I4
tp1206
a(I1
I4
I1
tp1207
a(I5
I3
I4
tp1208
atp1209
Rp1210
sI5
g18
((lp1211
(I0
I7
I6
tp1212
a(I5
I6
I6
tp1213
a(I3
I7
I1
tp1214
a(I0
I6
I1
tp1215
atp1216
Rp1217
ssg326
F8.0
sg327
F19.850000000000001
sg328
I53
sg329
F0.48113207547169812
sg330
I0
sg331
F0.15094339622641509
sg332
(dp1218
I0
g18
((lp1219
(I4
I0
I2
tp1220
a(I8
I1
I6
tp1221
atp1222
Rp1223
sI1
g18
((lp1224
(I6
I1
I2
tp1225
a(I3
I0
I3
tp1226
a(I5
I2
I1
tp1227
a(I8
I8
I4
tp1228
atp1229
Rp1230
sI2
g18
((lp1231
(I7
I8
I6
tp1232
a(I6
I5
I6
tp1233
a(I2
I1
I1
tp1234
a(I1
I2
I5
tp1235
a(I8
I7
I9
tp1236
atp1237
Rp1238
sI3
g18
((lp1239
(I1
I5
I4
tp1240
a(I4
I3
I1
tp1241
a(I2
I7
I4
tp1242
a(I7
I4
I4
tp1243
a(I0
I5
I5
tp1244
atp1245
Rp1246
sI4
g18
((lp1247
(I3
I4
I6
tp1248
a(I1
I3
I6
tp1249
atp1250
Rp1251
sI5
g18
((lp1252
(I5
I6
I6
tp1253
a(I3
I7
I1
tp1254
atp1255
Rp1256
ssbtp1257
asS'7 9 2 5 6 1 4 3 8 3 5 1 4 2 8 7 9 6 6 8 4 7 3 9 1 5 2 9 6 7 2 5 4 3 8 1 2 1 3 8 9 6 5 4 7 8 4 5 1 7 3 6 2 9 1 3 9 6 8 5 2 7 4 5 2 6 9 4 7 8 1 3 4 7 8 3 1 2 9 6 5'
p1258
(lp1259
(S'0 0 0 5 0 0 0 0 0 3 5 1 0 2 0 0 0 0 6 0 0 7 3 9 0 0 0 9 0 7 0 0 4 0 8 0 2 0 0 0 0 0 0 0 7 0 4 0 1 0 0 6 0 9 0 0 0 6 8 5 0 0 4 0 0 0 0 4 0 8 1 3 0 0 0 0 0 2 0 0 0'
p1260
(ignome_sudoku.sudoku
DifficultyRating
p1261
(dp1262
S'instant_elimination_fillable'
p1263
F2.0
sS'guesses'
p1264
g8
(g9
g10
(lp1265
tp1266
Rp1267
sS'proportion_instant_elimination_fillable'
p1268
F0.037735849056603772
sS'elimination_ease'
p1269
F7.3047619047619046
sS'fill_must_fillables'
p1270
(dp1271
I0
g18
((lp1272
(I5
I0
I1
tp1273
a(I3
I3
I2
tp1274
a(I3
I1
I4
tp1275
a(I7
I5
I2
tp1276
a(I4
I8
I1
tp1277
a(I3
I8
I3
tp1278
atp1279
Rp1280
sI1
g18
((lp1281
(I4
I5
I7
tp1282
a(I3
I4
I8
tp1283
a(I4
I4
I9
tp1284
a(I5
I1
I8
tp1285
a(I6
I6
I2
tp1286
a(I0
I6
I1
tp1287
atp1288
Rp1289
sI2
g18
((lp1290
(I1
I3
I6
tp1291
a(I2
I5
I5
tp1292
a(I5
I4
I6
tp1293
a(I4
I3
I5
tp1294
atp1295
Rp1296
sI3
g18
((lp1297
(I7
I8
I6
tp1298
a(I1
I4
I1
tp1299
a(I2
I7
I6
tp1300
a(I6
I3
I3
tp1301
atp1302
Rp1303
sI4
g18
((lp1304
(I1
I6
I3
tp1305
a(I6
I2
I1
tp1306
a(I7
I0
I3
tp1307
atp1308
Rp1309
sI5
g18
((lp1310
(I7
I1
I9
tp1311
a(I6
I4
I5
tp1312
a(I7
I6
I7
tp1313
a(I6
I8
I9
tp1314
a(I8
I0
I8
tp1315
a(I1
I0
I9
tp1316
a(I2
I8
I8
tp1317
a(I7
I2
I5
tp1318
atp1319
Rp1320
sI6
g18
((lp1321
(I0
I0
I7
tp1322
a(I2
I0
I2
tp1323
a(I7
I4
I4
tp1324
a(I2
I2
I4
tp1325
a(I6
I0
I4
tp1326
a(I6
I1
I7
tp1327
a(I0
I8
I4
tp1328
atp1329
Rp1330
ssS'instant_fill_fillable'
p1331
F6.0
sS'fillable_ease'
p1332
F14.266666666666667
sS'squares_filled'
p1333
I53
sS'value'
p1334
F0.59299191374663085
sS'backtraces'
p1335
I0
sS'proportion_instant_fill_fillable'
p1336
F0.11320754716981132
sS'elimination_fillables'
p1337
(dp1338
I0
g18
((lp1339
(I5
I7
I7
tp1340
a(I3
I7
I9
tp1341
atp1342
Rp1343
sI1
g18
((lp1344
(I4
I0
I6
tp1345
a(I3
I4
I8
tp1346
a(I0
I7
I5
tp1347
atp1348
Rp1349
sI2
g18
((lp1350
(I5
I5
I3
tp1351
a(I8
I1
I6
tp1352
a(I0
I5
I8
tp1353
a(I4
I3
I5
tp1354
atp1355
Rp1356
sI3
g18
((lp1357
(I8
I8
I5
tp1358
a(I1
I7
I2
tp1359
a(I2
I4
I3
tp1360
a(I8
I3
I1
tp1361
atp1362
Rp1363
sI4
g18
((lp1364
(I1
I2
I8
tp1365
a(I2
I6
I9
tp1366
atp1367
Rp1368
sI5
g18
((lp1369
(I8
I2
I2
tp1370
a(I7
I6
I7
tp1371
a(I1
I8
I7
tp1372
atp1373
Rp1374
sI6
g18
((lp1375
(I2
I2
I4
tp1376
a(I6
I1
I7
tp1377
a(I7
I4
I4
tp1378
a(I0
I8
I4
tp1379
atp1380
Rp1381
ssbtp1382
a(S'7 9 0 5 0 1 0 0 0 0 5 1 0 0 0 0 0 6 0 8 0 0 0 9 0 0 2 0 0 0 2 5 0 0 8 1 0 0 0 0 0 0 0 0 0 8 4 0 0 7 3 0 0 0 1 0 0 6 0 0 0 7 0 5 0 0 0 0 0 8 1 0 0 0 0 3 0 2 0 6 5'
p1383
(ignome_sudoku.sudoku
DifficultyRating
p1384
(dp1385
g1263
F2.0
sg1264
g8
(g9
g10
(lp1386
tp1387
Rp1388
sg1268
F0.037735849056603772
sg1269
F5.7999999999999998
sg1270
(dp1389
I0
g18
((lp1390
(I3
I5
I1
tp1391
a(I1
I4
I1
tp1392
a(I8
I4
I7
tp1393
a(I6
I6
I2
tp1394
a(I8
I0
I8
tp1395
a(I5
I6
I5
tp1396
a(I4
I8
I1
tp1397
a(I6
I2
I1
tp1398
atp1399
Rp1400
sI1
g18
((lp1401
(I7
I1
I9
tp1402
a(I1
I7
I2
tp1403
a(I6
I8
I9
tp1404
a(I6
I1
I7
tp1405
a(I2
I3
I7
tp1406
a(I4
I6
I8
tp1407
a(I3
I2
I7
tp1408
a(I2
I8
I8
tp1409
a(I7
I2
I5
tp1410
atp1411
Rp1412
sI2
g18
((lp1413
(I2
I7
I6
tp1414
a(I1
I3
I6
tp1415
a(I8
I7
I3
tp1416
a(I0
I3
I9
tp1417
a(I2
I6
I9
tp1418
a(I5
I7
I7
tp1419
a(I0
I8
I4
tp1420
atp1421
Rp1422
sI3
g18
((lp1423
(I6
I5
I6
tp1424
a(I0
I2
I6
tp1425
a(I4
I0
I6
tp1426
a(I5
I4
I6
tp1427
a(I6
I3
I3
tp1428
atp1429
Rp1430
sI4
g18
((lp1431
(I3
I4
I8
tp1432
a(I6
I4
I5
tp1433
a(I2
I0
I2
tp1434
a(I5
I1
I8
tp1435
a(I7
I0
I3
tp1436
a(I4
I1
I2
tp1437
atp1438
Rp1439
sI5
g18
((lp1440
(I0
I4
I2
tp1441
a(I3
I7
I9
tp1442
a(I2
I2
I4
tp1443
a(I3
I1
I4
tp1444
a(I0
I1
I3
tp1445
a(I4
I2
I3
tp1446
atp1447
Rp1448
ssg1331
F8.0
sg1332
F18.283333333333335
sg1333
I53
sg1334
F0.54559748427672949
sg1335
I0
sg1336
F0.15094339622641509
sg1337
(dp1449
I0
g18
((lp1450
(I8
I5
I9
tp1451
a(I1
I8
I7
tp1452
atp1453
Rp1454
sI1
g18
((lp1455
(I1
I6
I3
tp1456
atp1457
Rp1458
sI2
g18
((lp1459
(I1
I3
I6
tp1460
a(I0
I8
I4
tp1461
a(I7
I5
I2
tp1462
a(I8
I6
I4
tp1463
atp1464
Rp1465
sI3
g18
((lp1466
(I2
I5
I5
tp1467
a(I5
I3
I4
tp1468
atp1469
Rp1470
sI4
g18
((lp1471
(I4
I4
I9
tp1472
a(I6
I0
I4
tp1473
a(I7
I4
I4
tp1474
a(I5
I1
I8
tp1475
atp1476
Rp1477
sI5
g18
((lp1478
(I2
I4
I3
tp1479
a(I3
I1
I4
tp1480
a(I4
I7
I4
tp1481
a(I0
I1
I3
tp1482
atp1483
Rp1484
ssbtp1485
a(S'0 0 0 0 6 0 0 0 0 0 0 1 0 0 0 0 9 6 0 0 4 0 3 9 0 0 0 0 6 7 0 0 4 3 8 0 2 0 0 8 0 6 0 0 7 0 4 5 1 0 0 6 2 0 0 0 0 6 8 0 2 0 0 5 2 0 0 0 0 8 0 0 0 0 0 0 1 0 0 0 0'
p1486
(ignome_sudoku.sudoku
DifficultyRating
p1487
(dp1488
g1263
F1.0
sg1264
g8
(g9
g10
(lp1489
tp1490
Rp1491
sg1268
F0.018867924528301886
sg1269
F4.2257936507936504
sg1270
(dp1492
I0
g18
((lp1493
(I5
I5
I3
tp1494
a(I0
I2
I6
tp1495
a(I5
I0
I1
tp1496
a(I0
I5
I8
tp1497
a(I2
I0
I2
tp1498
atp1499
Rp1500
sI1
g18
((lp1501
(I6
I8
I9
tp1502
a(I4
I5
I7
tp1503
a(I8
I2
I2
tp1504
a(I5
I1
I8
tp1505
a(I2
I8
I8
tp1506
atp1507
Rp1508
sI2
g18
((lp1509
(I7
I8
I6
tp1510
a(I1
I2
I8
tp1511
a(I8
I0
I8
tp1512
a(I2
I7
I6
tp1513
a(I5
I8
I2
tp1514
atp1515
Rp1516
sI3
g18
((lp1517
(I8
I8
I5
tp1518
a(I7
I0
I3
tp1519
a(I7
I6
I7
tp1520
atp1521
Rp1522
sI4
g18
((lp1523
tp1524
Rp1525
sI5
g18
((lp1526
(I7
I7
I1
tp1527
a(I1
I4
I1
tp1528
a(I6
I2
I1
tp1529
a(I0
I6
I1
tp1530
atp1531
Rp1532
sI6
g18
((lp1533
(I2
I6
I9
tp1534
a(I3
I7
I9
tp1535
a(I7
I4
I4
tp1536
a(I2
I4
I3
tp1537
a(I4
I4
I9
tp1538
a(I3
I2
I7
tp1539
a(I1
I0
I9
tp1540
a(I8
I6
I4
tp1541
a(I0
I8
I4
tp1542
atp1543
Rp1544
sI7
g18
((lp1545
(I1
I8
I7
tp1546
a(I8
I7
I3
tp1547
a(I6
I4
I5
tp1548
a(I1
I6
I3
tp1549
a(I6
I1
I7
tp1550
a(I0
I1
I3
tp1551
a(I3
I0
I5
tp1552
a(I1
I1
I5
tp1553
a(I4
I7
I4
tp1554
a(I3
I8
I3
tp1555
atp1556
Rp1557
sI8
g18
((lp1558
(I4
I3
I5
tp1559
a(I3
I1
I4
tp1560
atp1561
Rp1562
ssg1331
F5.0
sg1332
F13.34126984126984
sg1333
I53
sg1334
F0.66854597184785869
sg1335
I0
sg1336
F0.094339622641509441
sg1337
(dp1563
I0
g18
((lp1564
(I8
I5
I9
tp1565
atp1566
Rp1567
sI1
g18
((lp1568
(I5
I7
I7
tp1569
a(I4
I5
I7
tp1570
atp1571
Rp1572
sI2
g18
((lp1573
(I5
I6
I5
tp1574
atp1575
Rp1576
sI3
g18
((lp1577
tp1578
Rp1579
sI4
g18
((lp1580
(I8
I3
I1
tp1581
atp1582
Rp1583
sI5
g18
((lp1584
(I0
I3
I9
tp1585
atp1586
Rp1587
sI6
g18
((lp1588
(I2
I4
I3
tp1589
a(I0
I0
I7
tp1590
a(I7
I2
I5
tp1591
atp1592
Rp1593
sI7
g18
((lp1594
(I6
I4
I5
tp1595
a(I1
I6
I3
tp1596
a(I6
I0
I4
tp1597
a(I0
I1
I3
tp1598
a(I8
I7
I3
tp1599
a(I4
I7
I4
tp1600
a(I3
I8
I3
tp1601
atp1602
Rp1603
sI8
g18
((lp1604
(I4
I1
I2
tp1605
a(I3
I3
I2
tp1606
atp1607
Rp1608
ssbtp1609
a(S'0 0 0 0 6 1 0 3 0 0 0 0 0 0 0 7 9 0 0 0 4 7 3 0 0 0 2 0 6 0 0 5 0 0 8 0 2 0 3 0 0 0 5 0 7 0 4 0 0 7 0 0 2 0 1 0 0 0 8 5 2 0 0 0 2 6 0 0 0 0 0 0 0 7 0 3 1 0 0 0 0'
p1610
(ignome_sudoku.sudoku
DifficultyRating
p1611
(dp1612
g1263
F1.0
sg1264
g8
(g9
g10
(lp1613
tp1614
Rp1615
sg1268
F0.018867924528301886
sg1269
F3.9289682539682542
sg1270
(dp1616
I0
g18
((lp1617
(I5
I7
I7
tp1618
a(I4
I1
I2
tp1619
a(I7
I6
I7
tp1620
a(I5
I8
I2
tp1621
atp1622
Rp1623
sI1
g18
((lp1624
(I3
I6
I6
tp1625
a(I2
I0
I2
tp1626
a(I3
I3
I2
tp1627
atp1628
Rp1629
sI2
g18
((lp1630
(I8
I6
I4
tp1631
a(I0
I0
I7
tp1632
a(I2
I3
I7
tp1633
a(I0
I1
I3
tp1634
atp1635
Rp1636
sI3
g18
((lp1637
(I0
I2
I6
tp1638
a(I8
I1
I6
tp1639
a(I6
I0
I4
tp1640
a(I7
I4
I4
tp1641
a(I0
I8
I4
tp1642
atp1643
Rp1644
sI4
g18
((lp1645
(I7
I8
I6
tp1646
a(I6
I5
I6
tp1647
a(I5
I3
I4
tp1648
a(I4
I7
I4
tp1649
a(I5
I4
I6
tp1650
atp1651
Rp1652
sI5
g18
((lp1653
(I5
I5
I3
tp1654
a(I5
I2
I9
tp1655
a(I8
I5
I9
tp1656
a(I3
I7
I9
tp1657
a(I3
I1
I4
tp1658
atp1659
Rp1660
sI6
g18
((lp1661
(I6
I8
I9
tp1662
a(I3
I0
I5
tp1663
a(I1
I0
I9
tp1664
atp1665
Rp1666
sI7
g18
((lp1667
(I1
I2
I8
tp1668
a(I8
I0
I8
tp1669
a(I7
I2
I5
tp1670
atp1671
Rp1672
sI8
g18
((lp1673
(I3
I4
I8
tp1674
a(I7
I7
I1
tp1675
a(I6
I7
I8
tp1676
a(I1
I1
I5
tp1677
a(I6
I2
I1
tp1678
a(I2
I8
I8
tp1679
atp1680
Rp1681
sI9
g18
((lp1682
(I3
I5
I1
tp1683
a(I2
I1
I1
tp1684
a(I8
I3
I1
tp1685
a(I2
I5
I5
tp1686
a(I0
I7
I5
tp1687
a(I8
I7
I3
tp1688
a(I0
I5
I8
tp1689
a(I6
I3
I3
tp1690
atp1691
Rp1692
ssg1331
F4.0
sg1332
F12.186904761904762
sg1333
I53
sg1334
F0.69592692422881097
sg1335
I0
sg1336
F0.075471698113207544
sg1337
(dp1693
I0
g18
((lp1694
(I2
I6
I9
tp1695
atp1696
Rp1697
sI1
g18
((lp1698
(I1
I6
I3
tp1699
atp1700
Rp1701
sI2
g18
((lp1702
(I8
I6
I4
tp1703
atp1704
Rp1705
sI3
g18
((lp1706
(I0
I3
I9
tp1707
atp1708
Rp1709
sI4
g18
((lp1710
(I4
I4
I9
tp1711
atp1712
Rp1713
sI5
g18
((lp1714
(I5
I1
I8
tp1715
a(I3
I7
I9
tp1716
atp1717
Rp1718
sI6
g18
((lp1719
(I3
I0
I5
tp1720
atp1721
Rp1722
sI7
g18
((lp1723
(I8
I0
I8
tp1724
atp1725
Rp1726
sI8
g18
((lp1727
(I8
I8
I5
tp1728
a(I7
I7
I1
tp1729
a(I1
I4
I1
tp1730
a(I6
I2
I1
tp1731
atp1732
Rp1733
sI9
g18
((lp1734
(I3
I5
I1
tp1735
a(I2
I1
I1
tp1736
a(I2
I5
I5
tp1737
a(I0
I7
I5
tp1738
a(I8
I7
I3
tp1739
a(I6
I3
I3
tp1740
atp1741
Rp1742
ssbtp1743
a(S'0 0 0 0 0 1 4 3 8 0 0 0 0 0 0 0 9 6 0 0 0 0 0 9 1 0 2 0 0 0 0 0 4 3 0 1 2 0 0 8 0 6 0 0 7 8 0 5 1 0 0 0 0 0 1 0 9 6 0 0 0 0 0 5 2 0 0 0 0 0 0 0 4 7 8 3 0 0 0 0 0'
p1744
(ignome_sudoku.sudoku
DifficultyRating
p1745
(dp1746
g1263
F1.0
sg1264
g8
(g9
g10
(lp1747
tp1748
Rp1749
sg1268
F0.018867924528301886
sg1269
F4.9952380952380953
sg1270
(dp1750
I0
g18
((lp1751
(I2
I7
I6
tp1752
a(I7
I3
I8
tp1753
atp1754
Rp1755
sI1
g18
((lp1756
(I2
I4
I3
tp1757
a(I8
I7
I3
tp1758
atp1759
Rp1760
sI2
g18
((lp1761
(I1
I4
I1
tp1762
a(I2
I1
I1
tp1763
atp1764
Rp1765
sI3
g18
((lp1766
(I1
I5
I4
tp1767
a(I7
I4
I4
tp1768
atp1769
Rp1770
sI4
g18
((lp1771
(I8
I6
I4
tp1772
a(I6
I4
I5
tp1773
atp1774
Rp1775
sI5
g18
((lp1776
(I8
I8
I5
tp1777
a(I4
I4
I9
tp1778
a(I7
I2
I5
tp1779
atp1780
Rp1781
sI6
g18
((lp1782
(I6
I8
I9
tp1783
a(I3
I7
I9
tp1784
atp1785
Rp1786
sI7
g18
((lp1787
(I5
I5
I3
tp1788
a(I7
I8
I6
tp1789
a(I0
I0
I7
tp1790
a(I4
I2
I3
tp1791
a(I6
I5
I6
tp1792
a(I3
I1
I4
tp1793
a(I4
I7
I4
tp1794
atp1795
Rp1796
sI8
g18
((lp1797
(I1
I2
I8
tp1798
a(I4
I5
I7
tp1799
a(I3
I3
I2
tp1800
a(I5
I6
I5
tp1801
a(I1
I3
I6
tp1802
a(I7
I7
I1
tp1803
a(I4
I3
I5
tp1804
a(I6
I6
I2
tp1805
a(I4
I0
I6
tp1806
a(I1
I1
I5
tp1807
a(I0
I3
I9
tp1808
a(I4
I1
I2
tp1809
a(I1
I0
I9
tp1810
a(I7
I5
I2
tp1811
atp1812
Rp1813
sI9
g18
((lp1814
(I4
I6
I8
tp1815
a(I7
I6
I7
tp1816
atp1817
Rp1818
ssg1331
F2.0
sg1332
F7.9829365079365076
sg1333
I53
sg1334
F0.75512878107217729
sg1335
I0
sg1336
F0.037735849056603772
sg1337
(dp1819
I0
g18
((lp1820
(I1
I6
I3
tp1821
atp1822
Rp1823
sI1
g18
((lp1824
(I2
I3
I7
tp1825
atp1826
Rp1827
sI2
g18
((lp1828
(I2
I0
I2
tp1829
a(I2
I2
I4
tp1830
atp1831
Rp1832
sI3
g18
((lp1833
tp1834
Rp1835
sI4
g18
((lp1836
(I8
I5
I9
tp1837
atp1838
Rp1839
sI5
g18
((lp1840
(I8
I8
I5
tp1841
a(I4
I4
I9
tp1842
a(I6
I1
I7
tp1843
atp1844
Rp1845
sI6
g18
((lp1846
(I3
I2
I7
tp1847
a(I5
I8
I2
tp1848
a(I0
I1
I3
tp1849
atp1850
Rp1851
sI7
g18
((lp1852
(I4
I8
I1
tp1853
a(I0
I2
I6
tp1854
a(I3
I0
I5
tp1855
a(I6
I7
I8
tp1856
atp1857
Rp1858
sI8
g18
((lp1859
(I1
I2
I8
tp1860
a(I3
I3
I2
tp1861
a(I1
I0
I9
tp1862
a(I5
I1
I8
tp1863
a(I6
I6
I2
tp1864
a(I7
I5
I2
tp1865
a(I0
I3
I9
tp1866
a(I5
I7
I7
tp1867
a(I4
I0
I6
tp1868
atp1869
Rp1870
sI9
g18
((lp1871
(I4
I6
I8
tp1872
a(I7
I6
I7
tp1873
atp1874
Rp1875
ssbtp1876
asS'3 4 8 5 1 7 9 6 2 5 6 7 9 8 2 3 1 4 2 9 1 6 3 4 8 5 7 1 8 6 2 7 3 5 4 9 9 5 2 4 6 1 7 8 3 4 7 3 8 5 9 1 2 6 7 1 5 3 2 6 4 9 8 6 3 9 1 4 8 2 7 5 8 2 4 7 9 5 6 3 1'
p1877
(lp1878
sS'6 9 2 7 8 5 3 4 1 3 8 7 4 1 9 5 6 2 5 1 4 2 6 3 7 8 9 7 2 6 1 3 8 4 9 5 1 4 8 9 5 7 6 2 3 9 3 5 6 2 4 8 1 7 8 5 1 3 4 2 9 7 6 4 6 9 5 7 1 2 3 8 2 7 3 8 9 6 1 5 4'
p1879
(lp1880
sS'9 6 2 8 7 1 4 3 5 8 1 4 3 9 5 6 2 7 7 3 5 6 2 4 8 9 1 4 9 6 1 8 2 7 5 3 2 5 8 4 3 7 1 6 9 1 7 3 9 5 6 2 4 8 6 4 9 7 1 3 5 8 2 5 8 1 2 6 9 3 7 4 3 2 7 5 4 8 9 1 6'
p1881
(lp1882
(S'9 0 2 8 0 0 4 0 0 0 1 0 3 0 0 0 2 0 0 0 0 6 0 4 0 0 0 4 0 0 1 8 0 0 5 0 2 0 0 0 0 0 0 0 9 0 7 0 0 5 6 0 0 8 0 0 0 7 0 3 0 0 0 0 8 0 0 0 9 0 7 0 0 0 7 0 0 8 9 0 6'
p1883
(ignome_sudoku.sudoku
DifficultyRating
p1884
(dp1885
S'instant_elimination_fillable'
p1886
F2.0
sS'guesses'
p1887
g8
(g9
g10
(lp1888
tp1889
Rp1890
sS'proportion_instant_elimination_fillable'
p1891
F0.037735849056603772
sS'elimination_ease'
p1892
F6.9964285714285701
sS'fill_must_fillables'
p1893
(dp1894
I0
g18
((lp1895
(I5
I0
I1
tp1896
a(I2
I1
I4
tp1897
a(I2
I4
I8
tp1898
a(I4
I1
I9
tp1899
a(I7
I2
I9
tp1900
a(I4
I2
I2
tp1901
a(I4
I4
I3
tp1902
a(I3
I5
I9
tp1903
a(I5
I3
I2
tp1904
atp1905
Rp1906
sI1
g18
((lp1907
(I7
I6
I8
tp1908
a(I6
I5
I2
tp1909
a(I7
I5
I4
tp1910
a(I4
I0
I7
tp1911
a(I1
I4
I5
tp1912
a(I5
I1
I5
tp1913
atp1914
Rp1915
sI2
g18
((lp1916
(I8
I0
I5
tp1917
atp1918
Rp1919
sI3
g18
((lp1920
(I6
I3
I7
tp1921
a(I0
I2
I7
tp1922
a(I7
I0
I3
tp1923
atp1924
Rp1925
sI4
g18
((lp1926
(I0
I1
I8
tp1927
a(I6
I2
I8
tp1928
a(I0
I8
I3
tp1929
a(I6
I1
I6
tp1930
a(I2
I3
I6
tp1931
a(I7
I4
I6
tp1932
a(I6
I7
I3
tp1933
atp1934
Rp1935
sI5
g18
((lp1936
(I2
I5
I3
tp1937
a(I2
I6
I9
tp1938
a(I6
I6
I5
tp1939
a(I6
I4
I1
tp1940
a(I3
I8
I5
tp1941
atp1942
Rp1943
sI6
g18
((lp1944
(I8
I7
I4
tp1945
a(I1
I8
I2
tp1946
a(I3
I7
I2
tp1947
a(I0
I7
I5
tp1948
a(I4
I6
I1
tp1949
a(I1
I6
I4
tp1950
atp1951
Rp1952
sI7
g18
((lp1953
(I8
I6
I2
tp1954
atp1955
Rp1956
ssS'instant_fill_fillable'
p1957
F9.0
sS'fillable_ease'
p1958
F16.298809523809524
sS'squares_filled'
p1959
I53
sS'value'
p1960
F0.56046720575022468
sS'backtraces'
p1961
I0
sS'proportion_instant_fill_fillable'
p1962
F0.16981132075471697
sS'elimination_fillables'
p1963
(dp1964
I0
g18
((lp1965
(I3
I4
I4
tp1966
a(I5
I4
I7
tp1967
atp1968
Rp1969
sI1
g18
((lp1970
(I5
I1
I5
tp1971
a(I4
I0
I7
tp1972
atp1973
Rp1974
sI2
g18
((lp1975
(I8
I1
I7
tp1976
a(I1
I2
I3
tp1977
atp1978
Rp1979
sI3
g18
((lp1980
(I8
I3
I3
tp1981
a(I8
I2
I1
tp1982
a(I2
I2
I5
tp1983
a(I1
I0
I6
tp1984
atp1985
Rp1986
sI4
g18
((lp1987
(I0
I1
I8
tp1988
a(I6
I2
I8
tp1989
a(I1
I3
I9
tp1990
a(I7
I8
I1
tp1991
atp1992
Rp1993
sI5
g18
((lp1994
(I2
I7
I1
tp1995
a(I4
I8
I4
tp1996
a(I6
I6
I5
tp1997
a(I0
I5
I1
tp1998
a(I6
I4
I1
tp1999
atp2000
Rp2001
sI6
g18
((lp2002
(I1
I8
I2
tp2003
a(I3
I7
I2
tp2004
a(I4
I7
I6
tp2005
a(I0
I6
I6
tp2006
atp2007
Rp2008
sI7
g18
((lp2009
(I8
I6
I2
tp2010
atp2011
Rp2012
ssbtp2013
asS'4 9 6 8 5 7 2 1 3 3 8 7 1 6 2 5 4 9 1 2 5 4 3 9 6 8 7 7 1 3 6 4 8 9 5 2 5 4 2 7 9 3 1 6 8 8 6 9 5 2 1 7 3 4 6 5 8 2 7 4 3 9 1 2 3 1 9 8 5 4 7 6 9 7 4 3 1 6 8 2 5'
p2014
(lp2015
(S'0 9 0 0 0 0 2 0 0 0 8 0 1 0 0 5 4 0 0 0 0 0 3 9 0 8 0 0 0 3 0 4 8 9 0 0 0 0 0 7 0 3 0 0 0 0 0 9 5 2 0 7 0 0 0 5 0 2 7 0 0 0 0 0 3 1 0 0 5 0 7 0 0 0 4 0 0 0 0 2 0'
p2016
(ignome_sudoku.sudoku
DifficultyRating
p2017
(dp2018
S'instant_elimination_fillable'
p2019
F2.0
sS'guesses'
p2020
g8
(g9
g10
(lp2021
tp2022
Rp2023
sS'proportion_instant_elimination_fillable'
p2024
F0.037735849056603772
sS'elimination_ease'
p2025
F7.1452380952380956
sS'fill_must_fillables'
p2026
(dp2027
I0
g18
((lp2028
(I8
I8
I5
tp2029
a(I5
I1
I2
tp2030
a(I7
I6
I9
tp2031
a(I4
I4
I9
tp2032
a(I8
I1
I9
tp2033
a(I0
I7
I2
tp2034
a(I4
I0
I5
tp2035
a(I3
I8
I3
tp2036
atp2037
Rp2038
sI1
g18
((lp2039
(I3
I7
I9
tp2040
a(I6
I6
I3
tp2041
a(I0
I1
I3
tp2042
a(I5
I5
I1
tp2043
a(I4
I8
I1
tp2044
a(I5
I0
I7
tp2045
a(I0
I8
I9
tp2046
a(I3
I0
I8
tp2047
atp2048
Rp2049
sI2
g18
((lp2050
(I1
I8
I7
tp2051
a(I5
I6
I4
tp2052
a(I6
I8
I8
tp2053
a(I8
I6
I1
tp2054
a(I0
I0
I4
tp2055
a(I8
I2
I7
tp2056
a(I0
I3
I7
tp2057
atp2058
Rp2059
sI3
g18
((lp2060
(I6
I2
I6
tp2061
a(I7
I3
I5
tp2062
a(I7
I0
I1
tp2063
a(I0
I6
I6
tp2064
atp2065
Rp2066
sI4
g18
((lp2067
(I8
I7
I6
tp2068
a(I1
I3
I1
tp2069
a(I6
I4
I1
tp2070
a(I7
I5
I3
tp2071
atp2072
Rp2073
sI5
g18
((lp2074
(I0
I2
I1
tp2075
a(I1
I5
I6
tp2076
a(I8
I4
I8
tp2077
atp2078
Rp2079
sI6
g18
((lp2080
(I1
I4
I4
tp2081
a(I2
I2
I5
tp2082
a(I2
I4
I2
tp2083
atp2084
Rp2085
ssS'instant_fill_fillable'
p2086
F8.0
sS'fillable_ease'
p2087
F17.06190476190476
sS'squares_filled'
p2088
I53
sS'value'
p2089
F0.54326145552560656
sS'backtraces'
p2090
I0
sS'proportion_instant_fill_fillable'
p2091
F0.15094339622641509
sS'elimination_fillables'
p2092
(dp2093
I0
g18
((lp2094
(I4
I1
I6
tp2095
a(I3
I3
I6
tp2096
atp2097
Rp2098
sI1
g18
((lp2099
(I4
I7
I8
tp2100
a(I2
I1
I7
tp2101
a(I5
I5
I1
tp2102
a(I3
I2
I4
tp2103
atp2104
Rp2105
sI2
g18
((lp2106
(I5
I8
I6
tp2107
a(I2
I0
I6
tp2108
atp2109
Rp2110
sI3
g18
((lp2111
(I8
I3
I2
tp2112
a(I2
I6
I8
tp2113
a(I8
I0
I3
tp2114
atp2115
Rp2116
sI4
g18
((lp2117
(I1
I3
I1
tp2118
a(I6
I7
I4
tp2119
a(I7
I4
I6
tp2120
a(I0
I5
I8
tp2121
atp2122
Rp2123
sI5
g18
((lp2124
(I1
I2
I2
tp2125
a(I8
I5
I4
tp2126
a(I0
I4
I5
tp2127
atp2128
Rp2129
sI6
g18
((lp2130
(I1
I4
I4
tp2131
a(I2
I2
I5
tp2132
a(I2
I4
I2
tp2133
atp2134
Rp2135
ssbtp2136
a(S'4 9 0 0 0 0 0 1 0 0 8 0 0 0 2 5 0 0 1 0 5 0 0 0 6 0 0 7 0 0 6 4 0 0 0 0 5 0 0 7 0 3 0 0 8 0 0 0 0 2 1 0 0 4 0 0 8 0 0 0 3 0 1 0 0 1 9 0 0 0 7 0 0 7 0 0 0 0 0 2 5'
p2137
(ignome_sudoku.sudoku
DifficultyRating
p2138
(dp2139
g2019
F2.0
sg2020
g8
(g9
g10
(lp2140
tp2141
Rp2142
sg2024
F0.037735849056603772
sg2025
F7.4571428571428564
sg2026
(dp2143
I0
g18
((lp2144
(I3
I6
I2
tp2145
a(I6
I5
I7
tp2146
a(I8
I7
I6
tp2147
a(I7
I2
I8
tp2148
a(I0
I5
I8
tp2149
a(I5
I3
I8
tp2150
atp2151
Rp2152
sI1
g18
((lp2153
(I7
I3
I5
tp2154
a(I7
I1
I4
tp2155
a(I3
I5
I5
tp2156
a(I5
I2
I9
tp2157
a(I0
I7
I2
tp2158
atp2159
Rp2160
sI2
g18
((lp2161
(I1
I2
I2
tp2162
a(I8
I1
I9
tp2163
a(I8
I3
I2
tp2164
a(I3
I2
I4
tp2165
a(I7
I5
I3
tp2166
atp2167
Rp2168
sI3
g18
((lp2169
(I0
I8
I9
tp2170
a(I2
I4
I2
tp2171
a(I1
I3
I1
tp2172
a(I6
I3
I9
tp2173
a(I2
I5
I9
tp2174
atp2175
Rp2176
sI4
g18
((lp2177
(I2
I8
I4
tp2178
a(I1
I7
I3
tp2179
a(I2
I3
I3
tp2180
a(I5
I6
I4
tp2181
a(I0
I1
I3
tp2182
atp2183
Rp2184
sI5
g18
((lp2185
(I5
I0
I7
tp2186
a(I6
I7
I4
tp2187
a(I4
I6
I7
tp2188
atp2189
Rp2190
sI6
g18
((lp2191
(I2
I1
I7
tp2192
a(I8
I2
I7
tp2193
a(I3
I0
I8
tp2194
a(I4
I8
I1
tp2195
a(I4
I7
I8
tp2196
a(I4
I0
I5
tp2197
atp2198
Rp2199
ssg2086
F6.0
sg2087
F13.773809523809524
sg2088
I53
sg2089
F0.59941599281221913
sg2090
I0
sg2091
F0.11320754716981132
sg2092
(dp2200
I0
g18
((lp2201
(I8
I7
I6
tp2202
a(I4
I4
I9
tp2203
atp2204
Rp2205
sI1
g18
((lp2206
(I7
I4
I6
tp2207
a(I3
I5
I5
tp2208
a(I6
I0
I2
tp2209
atp2210
Rp2211
sI2
g18
((lp2212
(I6
I4
I1
tp2213
a(I7
I6
I9
tp2214
atp2215
Rp2216
sI3
g18
((lp2217
(I1
I4
I4
tp2218
a(I6
I3
I9
tp2219
a(I1
I5
I6
tp2220
a(I0
I6
I6
tp2221
atp2222
Rp2223
sI4
g18
((lp2224
(I1
I6
I5
tp2225
a(I2
I3
I3
tp2226
a(I0
I1
I3
tp2227
atp2228
Rp2229
sI5
g18
((lp2230
(I5
I7
I5
tp2231
a(I4
I6
I7
tp2232
a(I5
I8
I6
tp2233
a(I3
I1
I1
tp2234
a(I6
I8
I8
tp2235
atp2236
Rp2237
sI6
g18
((lp2238
(I4
I1
I6
tp2239
a(I2
I0
I6
tp2240
a(I8
I0
I3
tp2241
a(I4
I7
I8
tp2242
a(I4
I2
I3
tp2243
a(I3
I8
I3
tp2244
atp2245
Rp2246
ssbtp2247
asS'8 1 9 2 6 5 7 3 4 2 5 6 4 7 3 1 8 9 4 7 3 1 8 9 5 2 6 6 3 2 8 5 7 9 4 1 7 9 5 3 1 4 2 6 8 1 8 4 9 2 6 3 5 7 5 4 7 6 9 2 8 1 3 3 2 1 7 4 8 6 9 5 9 6 8 5 3 1 4 7 2'
p2248
(lp2249
(S'8 0 9 0 0 0 0 3 0 0 5 0 4 7 0 0 0 0 0 7 0 1 0 0 0 0 6 0 3 2 0 0 7 9 0 1 0 0 0 0 0 0 0 0 0 1 0 4 9 0 0 3 5 0 5 0 0 0 0 2 0 1 0 0 0 0 0 4 8 0 9 0 0 6 0 0 0 0 4 0 2'
p2250
(ignome_sudoku.sudoku
DifficultyRating
p2251
(dp2252
S'instant_elimination_fillable'
p2253
F4.0
sS'guesses'
p2254
g8
(g9
g10
(lp2255
tp2256
Rp2257
sS'proportion_instant_elimination_fillable'
p2258
F0.075471698113207544
sS'elimination_ease'
p2259
F11.333333333333334
sS'fill_must_fillables'
p2260
(dp2261
I0
g18
((lp2262
(I4
I5
I2
tp2263
a(I7
I3
I4
tp2264
a(I8
I5
I7
tp2265
a(I4
I2
I8
tp2266
a(I8
I1
I9
tp2267
a(I2
I4
I5
tp2268
a(I1
I6
I4
tp2269
a(I5
I4
I4
tp2270
a(I0
I2
I4
tp2271
atp2272
Rp2273
sI1
g18
((lp2274
(I3
I0
I2
tp2275
a(I4
I4
I1
tp2276
a(I7
I8
I7
tp2277
a(I0
I8
I9
tp2278
a(I4
I6
I9
tp2279
a(I5
I2
I9
tp2280
a(I8
I0
I4
tp2281
a(I3
I3
I8
tp2282
a(I1
I4
I9
tp2283
a(I7
I4
I6
tp2284
a(I0
I4
I7
tp2285
a(I6
I0
I7
tp2286
a(I2
I1
I6
tp2287
a(I5
I8
I1
tp2288
a(I5
I1
I3
tp2289
atp2290
Rp2291
sI2
g18
((lp2292
(I6
I2
I5
tp2293
a(I1
I7
I2
tp2294
a(I3
I4
I3
tp2295
a(I2
I7
I1
tp2296
a(I2
I8
I8
tp2297
a(I4
I8
I3
tp2298
a(I7
I1
I8
tp2299
a(I3
I8
I5
tp2300
a(I1
I0
I1
tp2301
a(I6
I6
I8
tp2302
a(I8
I7
I5
tp2303
a(I4
I0
I6
tp2304
a(I6
I4
I2
tp2305
a(I0
I7
I3
tp2306
a(I6
I1
I1
tp2307
atp2308
Rp2309
sI3
g18
((lp2310
(I6
I7
I6
tp2311
a(I3
I7
I7
tp2312
a(I2
I6
I7
tp2313
a(I3
I6
I6
tp2314
atp2315
Rp2316
ssS'instant_fill_fillable'
p2317
F9.0
sS'fillable_ease'
p2318
F22.5
sS'squares_filled'
p2319
I53
sS'value'
p2320
F0.36163522012578614
sS'backtraces'
p2321
I0
sS'proportion_instant_fill_fillable'
p2322
F0.16981132075471697
sS'elimination_fillables'
p2323
(dp2324
I0
g18
((lp2325
(I2
I2
I3
tp2326
a(I5
I5
I6
tp2327
a(I1
I5
I8
tp2328
a(I0
I3
I6
tp2329
atp2330
Rp2331
sI1
g18
((lp2332
(I7
I2
I2
tp2333
a(I4
I3
I5
tp2334
a(I0
I1
I2
tp2335
a(I5
I0
I5
tp2336
a(I1
I4
I9
tp2337
a(I5
I1
I3
tp2338
a(I8
I4
I8
tp2339
atp2340
Rp2341
sI2
g18
((lp2342
(I6
I2
I5
tp2343
a(I3
I4
I3
tp2344
a(I0
I7
I3
tp2345
a(I7
I1
I8
tp2346
a(I4
I8
I3
tp2347
a(I1
I0
I1
tp2348
a(I4
I0
I6
tp2349
a(I6
I4
I2
tp2350
a(I8
I6
I3
tp2351
a(I2
I8
I8
tp2352
atp2353
Rp2354
sI3
g18
((lp2355
(I6
I7
I6
tp2356
a(I2
I6
I7
tp2357
atp2358
Rp2359
ssbtp2360
a(S'0 0 9 2 0 0 0 0 4 0 0 6 0 0 3 1 0 0 4 0 0 1 0 0 5 0 0 0 3 0 8 0 0 9 0 1 0 0 0 3 0 4 0 0 0 1 0 4 0 0 6 0 5 0 0 0 7 0 0 2 0 0 3 0 0 1 7 0 0 6 0 0 9 0 0 0 0 1 4 0 0'
p2361
(ignome_sudoku.sudoku
DifficultyRating
p2362
(dp2363
g2253
F2.0
sg2254
g8
(g9
g10
(lp2364
tp2365
Rp2366
sg2258
F0.037735849056603772
sg2259
F5.2286435786435792
sg2260
(dp2367
I0
g18
((lp2368
(I7
I3
I4
tp2369
a(I7
I6
I1
tp2370
a(I4
I4
I1
tp2371
a(I6
I5
I3
tp2372
a(I1
I0
I1
tp2373
atp2374
Rp2375
sI1
g18
((lp2376
(I4
I6
I9
tp2377
a(I1
I4
I9
tp2378
a(I6
I4
I2
tp2379
a(I0
I3
I6
tp2380
atp2381
Rp2382
sI2
g18
((lp2383
(I5
I2
I9
tp2384
atp2385
Rp2386
sI3
g18
((lp2387
(I5
I3
I7
tp2388
a(I1
I1
I5
tp2389
a(I2
I4
I5
tp2390
atp2391
Rp2392
sI4
g18
((lp2393
(I3
I8
I5
tp2394
a(I4
I3
I5
tp2395
atp2396
Rp2397
sI5
g18
((lp2398
(I3
I6
I6
tp2399
a(I8
I7
I5
tp2400
a(I4
I7
I4
tp2401
a(I1
I6
I4
tp2402
a(I5
I0
I5
tp2403
atp2404
Rp2405
sI6
g18
((lp2406
(I8
I1
I9
tp2407
a(I4
I8
I3
tp2408
a(I7
I7
I9
tp2409
a(I1
I8
I6
tp2410
a(I0
I7
I3
tp2411
atp2412
Rp2413
sI7
g18
((lp2414
(I0
I1
I2
tp2415
a(I2
I2
I3
tp2416
a(I7
I0
I3
tp2417
a(I2
I8
I8
tp2418
atp2419
Rp2420
sI8
g18
((lp2421
(I4
I1
I7
tp2422
a(I1
I2
I7
tp2423
a(I1
I5
I8
tp2424
a(I0
I4
I7
tp2425
a(I4
I0
I6
tp2426
atp2427
Rp2428
sI9
g18
((lp2429
(I8
I4
I8
tp2430
a(I8
I5
I7
tp2431
a(I4
I2
I8
tp2432
a(I7
I8
I7
tp2433
atp2434
Rp2435
sI10
g18
((lp2436
(I8
I2
I6
tp2437
a(I8
I8
I2
tp2438
a(I7
I2
I2
tp2439
atp2440
Rp2441
ssg2317
F5.0
sg2318
F11.759235209235209
sg2319
I53
sg2320
F0.67947398513436252
sg2321
I0
sg2322
F0.094339622641509441
sg2323
(dp2442
I0
g18
((lp2443
(I3
I5
I9
tp2444
a(I6
I6
I8
tp2445
atp2446
Rp2447
sI1
g18
((lp2448
(I6
I0
I7
tp2449
atp2450
Rp2451
sI2
g18
((lp2452
(I0
I6
I5
tp2453
atp2454
Rp2455
sI3
g18
((lp2456
tp2457
Rp2458
sI4
g18
((lp2459
(I4
I5
I2
tp2460
a(I2
I3
I2
tp2461
a(I3
I1
I4
tp2462
atp2463
Rp2464
sI5
g18
((lp2465
(I3
I6
I6
tp2466
a(I5
I7
I8
tp2467
atp2468
Rp2469
sI6
g18
((lp2470
(I1
I7
I2
tp2471
a(I4
I8
I3
tp2472
atp2473
Rp2474
sI7
g18
((lp2475
(I0
I0
I8
tp2476
a(I2
I8
I8
tp2477
atp2478
Rp2479
sI8
g18
((lp2480
(I1
I2
I7
tp2481
a(I4
I0
I6
tp2482
a(I0
I4
I7
tp2483
a(I7
I1
I8
tp2484
atp2485
Rp2486
sI9
g18
((lp2487
(I7
I4
I6
tp2488
a(I4
I2
I8
tp2489
a(I8
I5
I7
tp2490
atp2491
Rp2492
sI10
g18
((lp2493
(I8
I8
I2
tp2494
a(I7
I2
I2
tp2495
atp2496
Rp2497
ssbtp2498
a(S'0 0 9 0 6 0 0 0 0 2 0 6 4 0 0 1 0 0 0 0 3 1 8 0 5 0 0 0 0 2 0 0 0 0 0 1 7 9 0 0 0 0 0 6 8 1 0 0 0 0 0 3 0 0 0 0 7 0 9 2 8 0 0 0 0 1 0 0 8 6 0 5 0 0 0 0 3 0 4 0 0'
p2499
(ignome_sudoku.sudoku
DifficultyRating
p2500
(dp2501
g2253
F4.0
sg2254
g8
(g9
g10
(lp2502
tp2503
Rp2504
sg2258
F0.075471698113207544
sg2259
F8.0357142857142847
sg2260
(dp2505
I0
g18
((lp2506
(I3
I0
I2
tp2507
a(I8
I2
I6
tp2508
a(I4
I4
I1
tp2509
a(I1
I0
I1
tp2510
a(I6
I3
I9
tp2511
a(I5
I8
I1
tp2512
a(I4
I7
I4
tp2513
a(I7
I6
I1
tp2514
atp2515
Rp2516
sI1
g18
((lp2517
(I4
I5
I2
tp2518
a(I7
I2
I2
tp2519
a(I6
I0
I7
tp2520
a(I8
I8
I2
tp2521
a(I3
I5
I9
tp2522
a(I1
I6
I4
tp2523
atp2524
Rp2525
sI2
g18
((lp2526
(I1
I7
I2
tp2527
a(I8
I1
I9
tp2528
a(I7
I8
I7
tp2529
a(I8
I5
I7
tp2530
a(I5
I2
I9
tp2531
a(I3
I3
I8
tp2532
atp2533
Rp2534
sI3
g18
((lp2535
(I3
I4
I3
tp2536
a(I0
I8
I9
tp2537
a(I0
I7
I3
tp2538
a(I1
I3
I3
tp2539
atp2540
Rp2541
sI4
g18
((lp2542
(I0
I0
I8
tp2543
atp2544
Rp2545
sI5
g18
((lp2546
(I5
I0
I5
tp2547
a(I1
I1
I5
tp2548
a(I7
I1
I8
tp2549
atp2550
Rp2551
sI6
g18
((lp2552
(I5
I1
I3
tp2553
a(I2
I4
I5
tp2554
a(I4
I3
I5
tp2555
atp2556
Rp2557
sI7
g18
((lp2558
(I7
I5
I5
tp2559
a(I2
I5
I4
tp2560
a(I3
I8
I5
tp2561
a(I5
I3
I7
tp2562
a(I7
I3
I4
tp2563
a(I0
I6
I5
tp2564
atp2565
Rp2566
sI8
g18
((lp2567
(I3
I6
I6
tp2568
a(I1
I5
I8
tp2569
a(I1
I8
I6
tp2570
atp2571
Rp2572
ssg2317
F8.0
sg2318
F16.211904761904762
sg2319
I53
sg2320
F0.54249775381850851
sg2321
I0
sg2322
F0.15094339622641509
sg2323
(dp2573
I0
g18
((lp2574
(I3
I7
I7
tp2575
a(I6
I4
I2
tp2576
a(I8
I6
I3
tp2577
a(I0
I2
I4
tp2578
atp2579
Rp2580
sI1
g18
((lp2581
(I1
I2
I7
tp2582
a(I6
I0
I7
tp2583
atp2584
Rp2585
sI2
g18
((lp2586
(I8
I1
I9
tp2587
a(I7
I7
I9
tp2588
a(I5
I2
I9
tp2589
a(I8
I0
I4
tp2590
atp2591
Rp2592
sI3
g18
((lp2593
(I0
I7
I3
tp2594
atp2595
Rp2596
sI4
g18
((lp2597
tp2598
Rp2599
sI5
g18
((lp2600
(I7
I0
I3
tp2601
a(I1
I1
I5
tp2602
atp2603
Rp2604
sI6
g18
((lp2605
(I5
I4
I4
tp2606
a(I4
I1
I7
tp2607
atp2608
Rp2609
sI7
g18
((lp2610
(I7
I3
I4
tp2611
a(I5
I5
I6
tp2612
a(I2
I8
I8
tp2613
a(I0
I3
I6
tp2614
atp2615
Rp2616
sI8
g18
((lp2617
(I3
I6
I6
tp2618
a(I1
I5
I8
tp2619
a(I1
I8
I6
tp2620
atp2621
Rp2622
ssbtp2623
asS'2 6 1 3 5 7 4 9 8 7 5 9 2 8 4 1 6 3 8 4 3 6 1 9 2 7 5 9 1 5 8 7 3 6 2 4 3 2 6 5 4 1 9 8 7 4 7 8 9 6 2 3 5 1 1 8 2 4 9 5 7 3 6 6 3 7 1 2 8 5 4 9 5 9 4 7 3 6 8 1 2'
p2624
(lp2625
(S'0 0 0 0 5 0 4 9 0 7 0 0 2 0 0 0 0 3 0 0 0 6 0 9 2 0 0 9 0 5 0 7 0 0 0 4 3 0 0 0 0 0 0 0 7 4 0 0 0 6 0 3 0 1 0 0 2 4 0 5 0 0 0 6 0 0 0 0 8 0 0 9 0 9 4 0 3 0 0 0 0'
p2626
(ignome_sudoku.sudoku
DifficultyRating
p2627
(dp2628
g1263
F1.0
sg1264
g8
(g9
g10
(lp2629
tp2630
Rp2631
sg1268
F0.018867924528301886
sg1269
F3.0571428571428569
sg1270
(dp2632
I0
g18
((lp2633
(I0
I0
I2
tp2634
a(I5
I8
I6
tp2635
a(I7
I7
I4
tp2636
a(I6
I4
I9
tp2637
a(I7
I2
I7
tp2638
a(I2
I1
I9
tp2639
a(I8
I8
I2
tp2640
a(I3
I5
I9
tp2641
a(I4
I6
I9
tp2642
atp2643
Rp2644
sI1
g18
((lp2645
(I7
I5
I5
tp2646
a(I8
I2
I5
tp2647
a(I7
I6
I3
tp2648
a(I4
I7
I2
tp2649
a(I5
I0
I7
tp2650
a(I3
I4
I5
tp2651
atp2652
Rp2653
sI2
g18
((lp2654
(I0
I8
I5
tp2655
a(I5
I3
I3
tp2656
a(I1
I1
I5
tp2657
a(I3
I0
I3
tp2658
atp2659
Rp2660
sI3
g18
((lp2661
(I3
I3
I8
tp2662
a(I1
I2
I4
tp2663
a(I6
I7
I5
tp2664
atp2665
Rp2666
sI4
g18
((lp2667
(I1
I7
I3
tp2668
a(I2
I2
I3
tp2669
a(I1
I3
I1
tp2670
a(I7
I4
I8
tp2671
atp2672
Rp2673
sI5
g18
((lp2674
(I1
I4
I2
tp2675
a(I8
I6
I6
tp2676
a(I7
I1
I6
tp2677
a(I6
I8
I8
tp2678
a(I2
I0
I1
tp2679
a(I7
I3
I2
tp2680
atp2681
Rp2682
sI6
g18
((lp2683
(I4
I1
I8
tp2684
a(I6
I6
I7
tp2685
a(I4
I2
I1
tp2686
a(I2
I5
I8
tp2687
a(I8
I0
I8
tp2688
a(I3
I7
I1
tp2689
a(I0
I6
I1
tp2690
a(I1
I0
I6
tp2691
a(I3
I8
I7
tp2692
a(I6
I1
I1
tp2693
atp2694
Rp2695
sI7
g18
((lp2696
(I1
I5
I7
tp2697
a(I5
I1
I4
tp2698
a(I5
I4
I1
tp2699
a(I1
I6
I8
tp2700
a(I4
I4
I4
tp2701
atp2702
Rp2703
ssg1331
F9.0
sg1332
F17.936904761904763
sg1333
I53
sg1334
F0.60388589398023362
sg1335
I0
sg1336
F0.16981132075471697
sg1337
(dp2704
I0
g18
((lp2705
(I5
I5
I2
tp2706
atp2707
Rp2708
sI1
g18
((lp2709
tp2710
Rp2711
sI2
g18
((lp2712
tp2713
Rp2714
sI3
g18
((lp2715
tp2716
Rp2717
sI4
g18
((lp2718
(I6
I3
I6
tp2719
atp2720
Rp2721
sI5
g18
((lp2722
(I7
I3
I2
tp2723
a(I7
I8
I1
tp2724
a(I2
I4
I6
tp2725
atp2726
Rp2727
sI6
g18
((lp2728
(I6
I6
I7
tp2729
a(I0
I2
I8
tp2730
a(I2
I7
I7
tp2731
a(I8
I0
I8
tp2732
a(I3
I8
I7
tp2733
a(I6
I1
I1
tp2734
atp2735
Rp2736
sI7
g18
((lp2737
(I1
I5
I7
tp2738
a(I5
I1
I4
tp2739
a(I1
I6
I8
tp2740
a(I4
I4
I4
tp2741
atp2742
Rp2743
ssbtp2744
a(S'0 0 0 0 0 0 0 9 8 0 0 0 0 0 4 1 0 0 8 4 3 6 0 0 2 0 0 9 0 5 0 0 3 0 0 0 3 2 0 0 0 0 0 8 7 0 0 0 9 0 0 3 0 1 0 0 2 0 0 5 7 3 6 0 0 7 1 0 0 0 0 0 5 9 0 0 0 0 0 0 0'
p2745
(ignome_sudoku.sudoku
DifficultyRating
p2746
(dp2747
g1263
F1.0
sg1264
g8
(g9
g10
(lp2748
(ignome_sudoku.sudoku
Guess
p2749
(dp2750
S'y'
p2751
I3
sS'x'
p2752
I7
sS'consequences'
p2753
(dp2754
(I8
I3
tp2755
I2
s(I5
I5
tp2756
I6
s(I4
I5
tp2757
I4
s(I2
I8
tp2758
I6
s(I4
I7
tp2759
I6
s(I0
I7
tp2760
I4
s(I7
I7
tp2761
I2
s(I8
I8
tp2762
I4
s(I2
I4
tp2763
I4
ssS'children'
p2764
(lp2765
sS'val'
p2766
I4
sba(ignome_sudoku.sudoku
Guess
p2767
(dp2768
g2751
I3
sg2752
I7
sg2753
(dp2769
(I4
I7
tp2770
I2
s(I4
I8
tp2771
I3
s(I3
I0
tp2772
I3
s(I2
I8
tp2773
I4
s(I7
I7
tp2774
I4
s(I0
I7
tp2775
I6
s(I5
I8
tp2776
I6
s(I4
I0
tp2777
I5
s(I5
I5
tp2778
I2
s(I4
I4
tp2779
I4
s(I1
I5
tp2780
I7
s(I5
I0
tp2781
I7
s(I4
I1
tp2782
I8
s(I1
I1
tp2783
I5
s(I0
I0
tp2784
I2
s(I4
I5
tp2785
I6
s(I0
I5
tp2786
I4
s(I1
I0
tp2787
I6
s(I3
I3
tp2788
I8
s(I0
I1
tp2789
I7
s(I8
I3
tp2790
I4
s(I3
I1
tp2791
I2
s(I3
I8
tp2792
I7
s(I8
I8
tp2793
I2
s(I4
I3
tp2794
I7
s(I2
I4
tp2795
I6
ssg2764
(lp2796
sg2766
I2
sbatp2797
Rp2798
sg1268
F0.018867924528301886
sg1269
F3.2833333333333337
sg1270
(dp2799
I0
g18
((lp2800
(I8
I1
I3
tp2801
a(I4
I6
I9
tp2802
a(I6
I0
I4
tp2803
a(I6
I4
I9
tp2804
a(I2
I1
I9
tp2805
a(I7
I8
I1
tp2806
a(I1
I7
I3
tp2807
a(I8
I7
I9
tp2808
atp2809
Rp2810
sI1
g18
((lp2811
(I7
I5
I5
tp2812
a(I6
I7
I5
tp2813
a(I6
I3
I6
tp2814
a(I5
I2
I9
tp2815
a(I7
I1
I6
tp2816
atp2817
Rp2818
sI2
g18
((lp2819
(I2
I5
I8
tp2820
a(I1
I6
I8
tp2821
a(I4
I2
I1
tp2822
atp2823
Rp2824
sI3
g18
((lp2825
(I5
I7
I8
tp2826
a(I1
I3
I1
tp2827
a(I0
I6
I1
tp2828
a(I5
I4
I1
tp2829
atp2830
Rp2831
sI4
g18
((lp2832
(I2
I0
I1
tp2833
atp2834
Rp2835
ssg1331
F8.0
sg1332
F12.699999999999999
sg1333
I53
sg1334
F0.69842767295597485
sg1335
I0
sg1336
F0.15094339622641509
sg1337
(dp2836
I0
g18
((lp2837
(I8
I2
I5
tp2838
atp2839
Rp2840
sI1
g18
((lp2841
(I7
I2
I7
tp2842
a(I6
I3
I6
tp2843
a(I6
I8
I8
tp2844
atp2845
Rp2846
sI2
g18
((lp2847
(I4
I2
I1
tp2848
atp2849
Rp2850
sI3
g18
((lp2851
(I3
I6
I4
tp2852
atp2853
Rp2854
sI4
g18
((lp2855
(I3
I4
I5
tp2856
atp2857
Rp2858
ssbtp2859
a(S'2 0 0 3 5 7 0 0 0 7 0 9 2 0 0 0 6 0 0 0 0 0 0 0 0 0 0 9 0 0 0 0 0 0 2 4 0 0 6 5 4 1 9 0 0 4 7 0 0 0 0 0 0 1 0 0 0 0 0 0 0 0 0 0 3 0 0 0 8 5 0 9 0 0 0 7 3 6 0 0 2'
p2860
(ignome_sudoku.sudoku
DifficultyRating
p2861
(dp2862
g1263
F3.0
sg1264
g8
(g9
g10
(lp2863
(ignome_sudoku.sudoku
Guess
p2864
(dp2865
g2751
I7
sg2752
I7
sg2753
(dp2866
(I1
I3
tp2867
I1
s(I2
I8
tp2868
I4
s(I1
I6
tp2869
I8
s(I3
I7
tp2870
I1
s(I2
I5
tp2871
I8
s(I7
I2
tp2872
I7
s(I1
I2
tp2873
I4
s(I3
I3
tp2874
I8
s(I0
I6
tp2875
I1
s(I8
I1
tp2876
I3
s(I6
I3
tp2877
I6
s(I3
I6
tp2878
I4
s(I0
I4
tp2879
I3
s(I4
I1
tp2880
I8
s(I1
I1
tp2881
I5
s(I3
I2
tp2882
I6
s(I4
I6
tp2883
I9
s(I8
I2
tp2884
I5
s(I4
I5
tp2885
I6
s(I2
I2
tp2886
I3
s(I6
I0
tp2887
I4
s(I2
I3
tp2888
I5
s(I4
I2
tp2889
I1
s(I0
I8
tp2890
I5
s(I6
I5
tp2891
I3
s(I3
I5
tp2892
I9
s(I6
I8
tp2893
I8
s(I6
I1
tp2894
I1
s(I7
I4
tp2895
I8
s(I2
I0
tp2896
I1
s(I7
I8
tp2897
I1
s(I0
I2
tp2898
I8
s(I8
I4
tp2899
I7
ssg2764
(lp2900
sg2766
I4
sba(ignome_sudoku.sudoku
Guess
p2901
(dp2902
g2751
I7
sg2752
I7
sg2753
(dp2903
(I3
I7
tp2904
I4
s(I8
I2
tp2905
I5
s(I8
I1
tp2906
I3
s(I0
I4
tp2907
I3
s(I7
I4
tp2908
I8
s(I0
I6
tp2909
I8
s(I1
I6
tp2910
I4
s(I7
I2
tp2911
I4
s(I2
I2
tp2912
I3
s(I2
I3
tp2913
I5
s(I0
I8
tp2914
I5
s(I1
I1
tp2915
I5
s(I6
I5
tp2916
I3
s(I6
I8
tp2917
I8
ssg2764
(lp2918
sg2766
I1
sbatp2919
Rp2920
sg1268
F0.055555555555555552
sg1269
F3.5
sg1270
(dp2921
I0
g18
((lp2922
(I7
I5
I5
tp2923
a(I1
I4
I2
tp2924
a(I8
I6
I6
tp2925
a(I1
I8
I9
tp2926
a(I6
I2
I2
tp2927
a(I7
I0
I9
tp2928
a(I1
I0
I6
tp2929
a(I4
I3
I7
tp2930
a(I0
I7
I6
tp2931
a(I5
I6
I5
tp2932
atp2933
Rp2934
sI1
g18
((lp2935
(I6
I6
I7
tp2936
a(I5
I5
I2
tp2937
atp2938
Rp2939
sI2
g18
((lp2940
(I7
I6
I3
tp2941
a(I2
I7
I7
tp2942
atp2943
Rp2944
sI3
g18
((lp2945
(I4
I7
I2
tp2946
a(I2
I6
I2
tp2947
atp2948
Rp2949
ssg1331
F10.0
sg1332
F12.166666666666666
sg1333
I54
sg1334
F0.70987654320987659
sg1335
I0
sg1336
F0.18518518518518517
sg1337
(dp2950
I0
g18
((lp2951
(I5
I1
I4
tp2952
a(I5
I3
I3
tp2953
a(I8
I0
I8
tp2954
atp2955
Rp2956
sI1
g18
((lp2957
(I5
I2
I9
tp2958
atp2959
Rp2960
sI2
g18
((lp2961
tp2962
Rp2963
sI3
g18
((lp2964
tp2965
Rp2966
ssbtp2967
a(S'0 0 1 0 5 7 4 0 0 0 0 9 2 0 0 0 0 0 8 4 0 6 0 0 0 7 0 0 0 5 0 0 3 0 2 0 3 0 0 0 0 0 0 0 7 0 7 0 9 0 0 3 0 0 0 8 0 0 0 5 0 3 6 0 0 0 0 0 8 5 0 0 0 0 4 7 3 0 8 0 0'
p2968
(ignome_sudoku.sudoku
DifficultyRating
p2969
(dp2970
g1263
F0.0
sg1264
g8
(g9
g10
(lp2971
(ignome_sudoku.sudoku
Guess
p2972
(dp2973
g2751
I0
sg2752
I8
sg2753
(dp2974
(I6
I4
tp2975
I9
s(I7
I4
tp2976
I8
s(I7
I0
tp2977
I9
s(I4
I6
tp2978
I9
s(I7
I1
tp2979
I6
s(I7
I8
tp2980
I1
s(I6
I1
tp2981
I1
s(I4
I4
tp2982
I4
s(I7
I7
tp2983
I4
s(I6
I3
tp2984
I6
s(I0
I6
tp2985
I1
s(I3
I6
tp2986
I4
s(I3
I7
tp2987
I1
s(I4
I2
tp2988
I1
s(I2
I5
tp2989
I8
s(I5
I2
tp2990
I9
s(I2
I4
tp2991
I6
ssg2764
(lp2992
(ignome_sudoku.sudoku
Guess
p2993
(dp2994
g2751
I7
sg2752
I4
sg2753
(dp2995
(I5
I4
tp2996
I1
s(I0
I0
tp2997
I2
s(I5
I5
tp2998
I2
s(I4
I5
tp2999
I6
s(I8
I3
tp3000
I4
s(I0
I7
tp3001
I6
s(I1
I8
tp3002
I9
s(I8
I8
tp3003
I2
s(I0
I5
tp3004
I4
s(I1
I4
tp3005
I2
s(I8
I7
tp3006
I9
s(I1
I3
tp3007
I1
s(I1
I0
tp3008
I6
s(I8
I5
tp3009
I1
s(I0
I3
tp3010
I9
s(I5
I8
tp3011
I6
ssg2764
(lp3012
sg2766
I2
sba(ignome_sudoku.sudoku
Guess
p3013
(dp3014
g2751
I7
sg2752
I4
sg2753
(dp3015
(I0
I0
tp3016
I6
s(I5
I5
tp3017
I6
s(I4
I5
tp3018
I2
s(I1
I8
tp3019
I6
s(I8
I7
tp3020
I2
s(I1
I0
tp3021
I2
s(I5
I8
tp3022
I2
ssg2764
(lp3023
(ignome_sudoku.sudoku
Guess
p3024
(dp3025
g2751
I4
sg2752
I5
sg2753
(dp3026
sg2764
(lp3027
sg2766
I1
sbasg2766
I6
sbasg2766
I8
sba(ignome_sudoku.sudoku
Guess
p3028
(dp3029
g2751
I0
sg2752
I8
sg2753
(dp3030
(I6
I4
tp3031
I9
s(I7
I0
tp3032
I8
s(I7
I1
tp3033
I6
s(I6
I1
tp3034
I1
s(I6
I3
tp3035
I6
s(I2
I5
tp3036
I6
s(I8
I5
tp3037
I8
s(I2
I4
tp3038
I8
ssg2764
(lp3039
(ignome_sudoku.sudoku
Guess
p3040
(dp3041
g2751
I3
sg2752
I1
sg2753
(dp3042
sg2764
(lp3043
(ignome_sudoku.sudoku
Guess
p3044
(dp3045
g2751
I7
sg2752
I3
sg2753
(dp3046
(I8
I3
tp3047
I1
s(I1
I4
tp3048
I1
s(I0
I6
tp3049
I1
s(I0
I7
tp3050
I9
s(I3
I6
tp3051
I4
s(I7
I8
tp3052
I9
ssg2764
(lp3053
(ignome_sudoku.sudoku
Guess
p3054
(dp3055
g2751
I6
sg2752
I4
sg2753
(dp3056
(I1
I8
tp3057
I6
s(I5
I4
tp3058
I6
s(I0
I0
tp3059
I6
s(I5
I2
tp3060
I9
s(I1
I0
tp3061
I2
ssg2764
(lp3062
(ignome_sudoku.sudoku
Guess
p3063
(dp3064
g2751
I7
sg2752
I7
sg2753
(dp3065
(I4
I7
tp3066
I6
s(I0
I5
tp3067
I2
s(I5
I5
tp3068
I1
s(I5
I8
tp3069
I2
ssg2764
(lp3070
sg2766
I4
sbasg2766
I9
sbasg2766
I1
sba(ignome_sudoku.sudoku
Guess
p3071
(dp3072
g2751
I7
sg2752
I3
sg2753
(dp3073
(I7
I4
tp3074
I4
s(I3
I6
tp3075
I1
ssg2764
(lp3076
(ignome_sudoku.sudoku
Guess
p3077
(dp3078
g2751
I3
sg2752
I8
sg2753
(dp3079
(I4
I5
tp3080
I4
ssg2764
(lp3081
(ignome_sudoku.sudoku
Guess
p3082
(dp3083
g2751
I6
sg2752
I4
sg2753
(dp3084
(I5
I2
tp3085
I9
s(I0
I3
tp3086
I4
s(I7
I8
tp3087
I9
s(I0
I7
tp3088
I9
ssg2764
(lp3089
sg2766
I9
sbasg2766
I1
sbasg2766
I4
sbasg2766
I9
sba(ignome_sudoku.sudoku
Guess
p3090
(dp3091
g2751
I3
sg2752
I1
sg2753
(dp3092
(I5
I5
tp3093
I1
s(I4
I4
tp3094
I6
s(I7
I7
tp3095
I9
s(I0
I7
tp3096
I6
s(I1
I8
tp3097
I9
s(I0
I5
tp3098
I4
s(I4
I2
tp3099
I1
s(I0
I3
tp3100
I9
s(I5
I2
tp3101
I9
s(I5
I8
tp3102
I6
s(I4
I6
tp3103
I9
ssg2764
(lp3104
(ignome_sudoku.sudoku
Guess
p3105
(dp3106
g2751
I7
sg2752
I4
sg2753
(dp3107
(I0
I6
tp3108
I1
s(I1
I0
tp3109
I6
s(I0
I0
tp3110
I2
s(I1
I4
tp3111
I2
s(I3
I7
tp3112
I1
ssg2764
(lp3113
sg2766
I2
sbasg2766
I1
sbasg2766
I9
sbatp3114
Rp3115
sg1268
F0.0
sg1269
F0.5
sg1270
(dp3116
I0
g18
((lp3117
(I6
I6
I7
tp3118
a(I3
I0
I3
tp3119
a(I0
I1
I7
tp3120
a(I8
I2
I5
tp3121
a(I4
I3
I7
tp3122
a(I3
I4
I5
tp3123
atp3124
Rp3125
sI1
g18
((lp3126
(I7
I5
I5
tp3127
a(I4
I1
I8
tp3128
a(I8
I1
I3
tp3129
a(I2
I7
I7
tp3130
a(I3
I3
I8
tp3131
a(I6
I2
I2
tp3132
a(I1
I1
I5
tp3133
a(I0
I8
I5
tp3134
a(I2
I2
I3
tp3135
atp3136
Rp3137
sI2
g18
((lp3138
(I5
I1
I4
tp3139
a(I1
I7
I3
tp3140
atp3141
Rp3142
ssg1331
F6.0
sg1332
F11.166666666666666
sg1333
I53
sg1334
F0.77987421383647804
sg1335
I9
sg1336
F0.11320754716981132
sg1337
(dp3143
I0
g18
((lp3144
tp3145
Rp3146
sI1
g18
((lp3147
(I2
I6
I2
tp3148
atp3149
Rp3150
sI2
g18
((lp3151
tp3152
Rp3153
ssbtp3154
a(S'2 6 0 3 0 0 0 9 0 7 0 0 2 0 4 0 6 0 0 0 0 0 0 9 0 0 0 9 0 5 0 7 0 6 0 4 0 0 0 0 0 0 0 0 0 4 0 8 0 6 0 3 0 1 0 0 0 4 0 0 0 0 0 0 3 0 1 0 8 0 0 9 0 9 0 0 0 6 0 1 2'
p3155
(ignome_sudoku.sudoku
DifficultyRating
p3156
(dp3157
g1263
F1.0
sg1264
g8
(g9
g10
(lp3158
tp3159
Rp3160
sg1268
F0.018867924528301886
sg1269
F5.5166666666666657
sg1270
(dp3161
I0
g18
((lp3162
(I8
I6
I6
tp3163
a(I4
I6
I9
tp3164
a(I6
I4
I9
tp3165
a(I4
I4
I4
tp3166
a(I5
I3
I3
tp3167
a(I2
I1
I9
tp3168
a(I3
I2
I6
tp3169
a(I1
I2
I4
tp3170
a(I3
I5
I9
tp3171
a(I4
I8
I3
tp3172
atp3173
Rp3174
sI1
g18
((lp3175
(I8
I1
I3
tp3176
a(I5
I4
I1
tp3177
a(I1
I3
I1
tp3178
a(I6
I0
I4
tp3179
a(I7
I7
I4
tp3180
a(I7
I6
I3
tp3181
a(I4
I7
I2
tp3182
a(I6
I2
I2
tp3183
a(I5
I0
I7
tp3184
a(I3
I8
I7
tp3185
atp3186
Rp3187
sI2
g18
((lp3188
(I7
I5
I5
tp3189
a(I5
I5
I2
tp3190
a(I2
I8
I4
tp3191
a(I4
I2
I1
tp3192
a(I5
I6
I5
tp3193
a(I0
I6
I1
tp3194
a(I6
I1
I1
tp3195
atp3196
Rp3197
sI3
g18
((lp3198
(I1
I5
I7
tp3199
a(I0
I4
I3
tp3200
a(I1
I1
I5
tp3201
atp3202
Rp3203
sI4
g18
((lp3204
(I4
I1
I8
tp3205
a(I0
I2
I8
tp3206
a(I2
I4
I6
tp3207
a(I8
I2
I5
tp3208
a(I0
I7
I6
tp3209
a(I4
I0
I5
tp3210
a(I1
I6
I8
tp3211
atp3212
Rp3213
sI5
g18
((lp3214
(I2
I6
I2
tp3215
a(I7
I2
I7
tp3216
a(I6
I7
I5
tp3217
a(I8
I4
I7
tp3218
a(I6
I8
I8
tp3219
a(I7
I4
I8
tp3220
a(I8
I0
I8
tp3221
a(I0
I8
I5
tp3222
atp3223
Rp3224
ssg1331
F10.0
sg1332
F20.816666666666663
sg1333
I53
sg1334
F0.50314465408805042
sg1335
I0
sg1336
F0.18867924528301888
sg1337
(dp3225
I0
g18
((lp3226
(I3
I3
I8
tp3227
atp3228
Rp3229
sI1
g18
((lp3230
(I3
I4
I5
tp3231
a(I7
I3
I2
tp3232
a(I2
I0
I1
tp3233
atp3234
Rp3235
sI2
g18
((lp3236
(I2
I8
I4
tp3237
a(I2
I2
I3
tp3238
a(I5
I6
I5
tp3239
a(I5
I5
I2
tp3240
atp3241
Rp3242
sI3
g18
((lp3243
(I1
I5
I7
tp3244
atp3245
Rp3246
sI4
g18
((lp3247
(I0
I2
I8
tp3248
a(I4
I1
I8
tp3249
a(I1
I4
I2
tp3250
atp3251
Rp3252
sI5
g18
((lp3253
(I0
I8
I5
tp3254
a(I7
I2
I7
tp3255
a(I2
I7
I7
tp3256
a(I6
I6
I7
tp3257
a(I8
I0
I8
tp3258
atp3259
Rp3260
ssbtp3261
asS'8 1 6 2 5 9 7 3 4 4 9 2 3 6 7 8 5 1 3 7 5 8 4 1 2 9 6 6 2 4 9 1 3 5 8 7 7 8 1 5 2 4 9 6 3 5 3 9 6 7 8 4 1 2 1 5 3 7 9 2 6 4 8 2 6 8 4 3 5 1 7 9 9 4 7 1 8 6 3 2 5'
p3262
(lp3263
sS'9 4 7 3 1 8 5 2 6 3 2 6 4 5 9 8 1 7 1 5 8 2 6 7 4 9 3 8 7 1 6 3 2 9 4 5 4 3 5 8 9 1 7 6 2 2 6 9 5 7 4 3 8 1 6 8 2 7 4 5 1 3 9 5 9 3 1 8 6 2 7 4 7 1 4 9 2 3 6 5 8'
p3264
(lp3265
(S'0 4 7 0 1 0 5 2 0 0 0 0 0 0 9 0 0 0 0 0 8 0 6 0 0 0 3 0 7 0 0 0 0 9 4 0 4 0 0 8 0 1 0 0 2 0 6 9 0 0 0 0 8 0 6 0 0 0 4 0 1 0 0 0 0 0 1 0 0 0 0 0 0 1 4 0 2 0 6 5 0'
p3266
(ignome_sudoku.sudoku
DifficultyRating
p3267
(dp3268
S'instant_elimination_fillable'
p3269
F1.0
sS'guesses'
p3270
g8
(g9
g10
(lp3271
tp3272
Rp3273
sS'proportion_instant_elimination_fillable'
p3274
F0.018867924528301886
sS'elimination_ease'
p3275
F4.852380952380952
sS'fill_must_fillables'
p3276
(dp3277
I0
g18
((lp3278
(I8
I0
I6
tp3279
a(I3
I3
I6
tp3280
a(I5
I7
I6
tp3281
a(I4
I4
I9
tp3282
a(I0
I3
I8
tp3283
a(I6
I7
I2
tp3284
a(I7
I4
I6
tp3285
a(I2
I1
I6
tp3286
atp3287
Rp3288
sI1
g18
((lp3289
(I6
I1
I8
tp3290
a(I8
I7
I4
tp3291
a(I7
I2
I9
tp3292
a(I0
I0
I9
tp3293
a(I5
I0
I8
tp3294
a(I6
I4
I7
tp3295
a(I2
I3
I1
tp3296
atp3297
Rp3298
sI2
g18
((lp3299
(I0
I5
I2
tp3300
a(I2
I6
I2
tp3301
a(I6
I2
I4
tp3302
a(I6
I5
I3
tp3303
a(I3
I1
I4
tp3304
a(I1
I7
I9
tp3305
a(I4
I7
I8
tp3306
a(I8
I5
I1
tp3307
a(I7
I1
I1
tp3308
a(I5
I3
I2
tp3309
a(I0
I2
I1
tp3310
a(I8
I8
I8
tp3311
atp3312
Rp3313
sI3
g18
((lp3314
(I8
I1
I7
tp3315
a(I8
I6
I9
tp3316
a(I1
I1
I2
tp3317
a(I3
I2
I2
tp3318
a(I4
I3
I3
tp3319
a(I3
I8
I9
tp3320
a(I1
I6
I8
tp3321
a(I5
I5
I4
tp3322
atp3323
Rp3324
sI4
g18
((lp3325
(I4
I5
I7
tp3326
a(I0
I1
I3
tp3327
a(I1
I4
I3
tp3328
a(I5
I2
I7
tp3329
atp3330
Rp3331
sI5
g18
((lp3332
(I0
I8
I7
tp3333
a(I5
I8
I3
tp3334
a(I2
I7
I3
tp3335
a(I5
I6
I5
tp3336
a(I2
I4
I5
tp3337
a(I3
I6
I7
tp3338
a(I0
I7
I5
tp3339
a(I3
I5
I5
tp3340
atp3341
Rp3342
sI6
g18
((lp3343
(I7
I6
I3
tp3344
a(I7
I7
I7
tp3345
atp3346
Rp3347
ssS'instant_fill_fillable'
p3348
F8.0
sS'fillable_ease'
p3349
F19.919047619047618
sS'squares_filled'
p3350
I53
sS'value'
p3351
F0.53261455525606483
sS'backtraces'
p3352
I0
sS'proportion_instant_fill_fillable'
p3353
F0.15094339622641509
sS'elimination_fillables'
p3354
(dp3355
I0
g18
((lp3356
(I3
I0
I3
tp3357
atp3358
Rp3359
sI1
g18
((lp3360
(I0
I0
I9
tp3361
a(I5
I0
I8
tp3362
atp3363
Rp3364
sI2
g18
((lp3365
(I8
I3
I5
tp3366
a(I6
I5
I3
tp3367
a(I6
I2
I4
tp3368
atp3369
Rp3370
sI3
g18
((lp3371
(I8
I1
I7
tp3372
a(I4
I3
I3
tp3373
atp3374
Rp3375
sI4
g18
((lp3376
(I4
I1
I5
tp3377
a(I1
I2
I5
tp3378
atp3379
Rp3380
sI5
g18
((lp3381
(I0
I8
I7
tp3382
a(I3
I5
I5
tp3383
a(I5
I8
I3
tp3384
a(I2
I4
I5
tp3385
atp3386
Rp3387
sI6
g18
((lp3388
(I7
I6
I3
tp3389
a(I7
I7
I7
tp3390
atp3391
Rp3392
ssbtp3393
asS'8 6 1 5 2 4 7 9 3 7 4 9 1 6 3 2 5 8 3 5 2 7 9 8 1 4 6 5 9 6 2 4 1 8 3 7 2 8 4 3 7 9 6 1 5 1 3 7 8 5 6 9 2 4 6 1 5 9 3 7 4 8 2 9 7 3 4 8 2 5 6 1 4 2 8 6 1 5 3 7 9'
p3394
(lp3395
(S'0 0 1 5 2 0 7 9 0 0 4 0 0 0 0 0 5 0 3 0 0 0 0 8 1 0 0 0 0 0 2 0 0 8 0 7 0 0 0 3 0 9 0 0 0 1 0 7 0 0 6 0 0 0 0 0 5 9 0 0 0 0 2 0 7 0 0 0 0 0 6 0 0 2 8 0 1 5 3 0 0'
p3396
(ignome_sudoku.sudoku
DifficultyRating
p3397
(dp3398
S'instant_elimination_fillable'
p3399
F1.0
sS'guesses'
p3400
g8
(g9
g10
(lp3401
tp3402
Rp3403
sS'proportion_instant_elimination_fillable'
p3404
F0.018867924528301886
sS'elimination_ease'
p3405
F7.2333333333333325
sS'fill_must_fillables'
p3406
(dp3407
I0
g18
((lp3408
(I7
I6
I8
tp3409
a(I5
I3
I1
tp3410
a(I8
I7
I1
tp3411
a(I3
I1
I1
tp3412
a(I1
I6
I1
tp3413
a(I0
I1
I7
tp3414
a(I5
I7
I2
tp3415
a(I4
I4
I7
tp3416
a(I1
I2
I5
tp3417
atp3418
Rp3419
sI1
g18
((lp3420
(I5
I0
I4
tp3421
a(I0
I4
I2
tp3422
a(I5
I6
I7
tp3423
a(I7
I8
I7
tp3424
a(I8
I1
I8
tp3425
a(I2
I7
I3
tp3426
a(I6
I7
I5
tp3427
a(I7
I4
I1
tp3428
a(I3
I2
I7
tp3429
atp3430
Rp3431
sI2
g18
((lp3432
(I4
I6
I3
tp3433
a(I6
I5
I9
tp3434
a(I0
I3
I5
tp3435
a(I0
I0
I8
tp3436
a(I1
I4
I8
tp3437
a(I0
I7
I9
tp3438
a(I3
I8
I6
tp3439
a(I8
I0
I3
tp3440
a(I8
I4
I5
tp3441
atp3442
Rp3443
sI3
g18
((lp3444
(I8
I2
I6
tp3445
a(I1
I3
I9
tp3446
a(I6
I1
I2
tp3447
a(I4
I5
I5
tp3448
a(I1
I0
I6
tp3449
a(I2
I4
I4
tp3450
a(I7
I5
I2
tp3451
atp3452
Rp3453
sI4
g18
((lp3454
(I4
I1
I6
tp3455
a(I2
I2
I2
tp3456
a(I2
I3
I6
tp3457
a(I4
I7
I8
tp3458
a(I7
I3
I3
tp3459
a(I7
I2
I4
tp3460
a(I3
I7
I4
tp3461
a(I3
I5
I8
tp3462
atp3463
Rp3464
sI5
g18
((lp3465
tp3466
Rp3467
ssS'instant_fill_fillable'
p3468
F9.0
sS'fillable_ease'
p3469
F19.850000000000001
sS'squares_filled'
p3470
I53
sS'value'
p3471
F0.48899371069182396
sS'backtraces'
p3472
I0
sS'proportion_instant_fill_fillable'
p3473
F0.16981132075471697
sS'elimination_fillables'
p3474
(dp3475
I0
g18
((lp3476
(I6
I6
I4
tp3477
atp3478
Rp3479
sI1
g18
((lp3480
(I5
I1
I3
tp3481
a(I0
I6
I6
tp3482
a(I8
I8
I9
tp3483
a(I7
I8
I7
tp3484
atp3485
Rp3486
sI2
g18
((lp3487
(I4
I6
I3
tp3488
a(I0
I0
I8
tp3489
a(I6
I4
I6
tp3490
a(I0
I8
I4
tp3491
atp3492
Rp3493
sI3
g18
((lp3494
(I4
I3
I4
tp3495
a(I1
I5
I3
tp3496
a(I6
I1
I2
tp3497
a(I8
I5
I4
tp3498
a(I1
I0
I6
tp3499
a(I2
I4
I4
tp3500
atp3501
Rp3502
sI4
g18
((lp3503
(I4
I2
I9
tp3504
a(I2
I3
I6
tp3505
a(I4
I7
I8
tp3506
a(I2
I1
I9
tp3507
a(I7
I3
I3
tp3508
a(I7
I2
I4
tp3509
a(I3
I5
I8
tp3510
atp3511
Rp3512
sI5
g18
((lp3513
tp3514
Rp3515
ssbtp3516
a(S'0 0 1 0 0 4 7 0 3 7 0 0 0 6 0 0 5 0 0 0 2 7 0 8 0 0 6 0 9 0 0 4 0 0 0 0 0 0 0 3 0 9 0 0 0 0 0 0 0 5 0 0 2 0 6 0 0 9 0 7 4 0 0 0 7 0 0 8 0 0 0 1 4 0 8 6 0 0 3 0 0'
p3517
(ignome_sudoku.sudoku
DifficultyRating
p3518
(dp3519
g3399
F1.0
sg3400
g8
(g9
g10
(lp3520
tp3521
Rp3522
sg3404
F0.018867924528301886
sg3405
F5.9714285714285715
sg3406
(dp3523
I0
g18
((lp3524
(I3
I7
I4
tp3525
a(I4
I4
I7
tp3526
a(I7
I3
I3
tp3527
a(I3
I0
I5
tp3528
a(I1
I0
I6
tp3529
atp3530
Rp3531
sI1
g18
((lp3532
(I4
I0
I2
tp3533
a(I0
I0
I8
tp3534
a(I7
I8
I7
tp3535
atp3536
Rp3537
sI2
g18
((lp3538
(I2
I1
I9
tp3539
a(I8
I8
I9
tp3540
a(I4
I2
I9
tp3541
a(I3
I3
I2
tp3542
atp3543
Rp3544
sI3
g18
((lp3545
(I4
I6
I3
tp3546
a(I6
I5
I9
tp3547
a(I7
I4
I1
tp3548
a(I0
I7
I9
tp3549
a(I5
I1
I3
tp3550
a(I1
I6
I1
tp3551
a(I3
I5
I8
tp3552
atp3553
Rp3554
sI4
g18
((lp3555
(I0
I4
I2
tp3556
a(I1
I8
I2
tp3557
a(I8
I6
I2
tp3558
a(I1
I4
I8
tp3559
a(I2
I7
I3
tp3560
a(I1
I1
I4
tp3561
atp3562
Rp3563
sI5
g18
((lp3564
(I6
I1
I2
tp3565
a(I0
I3
I5
tp3566
a(I1
I2
I5
tp3567
a(I6
I7
I5
tp3568
a(I5
I7
I2
tp3569
a(I5
I8
I5
tp3570
atp3571
Rp3572
sI6
g18
((lp3573
(I0
I2
I3
tp3574
a(I5
I3
I1
tp3575
a(I6
I3
I8
tp3576
a(I8
I4
I5
tp3577
a(I0
I5
I1
tp3578
atp3579
Rp3580
sI7
g18
((lp3581
(I2
I3
I6
tp3582
a(I8
I5
I4
tp3583
a(I5
I5
I6
tp3584
a(I2
I5
I7
tp3585
a(I2
I4
I4
tp3586
atp3587
Rp3588
ssg3468
F5.0
sg3469
F13.122619047619045
sg3470
I53
sg3471
F0.63973495058400731
sg3472
I0
sg3473
F0.094339622641509441
sg3474
(dp3589
I0
g18
((lp3590
(I7
I6
I8
tp3591
atp3592
Rp3593
sI1
g18
((lp3594
(I7
I0
I9
tp3595
atp3596
Rp3597
sI2
g18
((lp3598
(I4
I8
I1
tp3599
a(I6
I2
I1
tp3600
a(I7
I7
I6
tp3601
a(I3
I1
I1
tp3602
atp3603
Rp3604
sI3
g18
((lp3605
(I7
I2
I4
tp3606
a(I4
I6
I3
tp3607
a(I5
I1
I3
tp3608
a(I3
I5
I8
tp3609
atp3610
Rp3611
sI4
g18
((lp3612
(I2
I6
I5
tp3613
a(I1
I1
I4
tp3614
atp3615
Rp3616
sI5
g18
((lp3617
(I6
I7
I5
tp3618
a(I8
I1
I8
tp3619
a(I1
I5
I3
tp3620
a(I5
I8
I5
tp3621
atp3622
Rp3623
sI6
g18
((lp3624
(I0
I2
I3
tp3625
a(I6
I4
I6
tp3626
a(I0
I5
I1
tp3627
a(I8
I3
I7
tp3628
atp3629
Rp3630
sI7
g18
((lp3631
(I2
I3
I6
tp3632
a(I8
I5
I4
tp3633
a(I5
I5
I6
tp3634
a(I2
I4
I4
tp3635
atp3636
Rp3637
ssbtp3638
a(S'0 0 1 0 0 0 0 9 0 7 0 0 1 0 3 0 5 0 0 0 0 0 9 8 1 0 6 0 9 0 0 4 0 0 0 0 0 8 4 0 0 0 6 1 0 0 0 0 0 5 0 0 2 0 6 0 5 9 3 0 0 0 0 0 7 0 4 0 2 0 0 1 0 2 0 0 0 0 3 0 0'
p3639
(ignome_sudoku.sudoku
DifficultyRating
p3640
(dp3641
g3399
F0.0
sg3400
g8
(g9
g10
(lp3642
tp3643
Rp3644
sg3404
F0.0
sg3405
F4.7313492063492069
sg3406
(dp3645
I0
g18
((lp3646
(I4
I8
I1
tp3647
a(I5
I0
I4
tp3648
a(I2
I1
I9
tp3649
a(I6
I7
I5
tp3650
atp3651
Rp3652
sI1
g18
((lp3653
(I6
I5
I9
tp3654
a(I0
I0
I8
tp3655
a(I0
I7
I9
tp3656
a(I8
I8
I9
tp3657
a(I4
I7
I8
tp3658
a(I1
I6
I1
tp3659
a(I5
I8
I5
tp3660
atp3661
Rp3662
sI2
g18
((lp3663
(I0
I8
I4
tp3664
a(I7
I8
I7
tp3665
a(I2
I7
I3
tp3666
a(I8
I5
I4
tp3667
a(I3
I8
I6
tp3668
a(I7
I7
I6
tp3669
a(I5
I4
I9
tp3670
atp3671
Rp3672
sI3
g18
((lp3673
(I3
I2
I7
tp3674
a(I3
I5
I8
tp3675
atp3676
Rp3677
sI4
g18
((lp3678
(I4
I4
I7
tp3679
a(I3
I0
I5
tp3680
a(I2
I5
I7
tp3681
atp3682
Rp3683
sI5
g18
((lp3684
(I2
I3
I6
tp3685
a(I1
I2
I5
tp3686
atp3687
Rp3688
sI6
g18
((lp3689
(I7
I2
I4
tp3690
a(I5
I5
I6
tp3691
a(I1
I1
I4
tp3692
atp3693
Rp3694
sI7
g18
((lp3695
(I4
I1
I6
tp3696
a(I1
I0
I6
tp3697
a(I7
I3
I3
tp3698
a(I8
I0
I3
tp3699
a(I6
I6
I4
tp3700
a(I0
I5
I1
tp3701
atp3702
Rp3703
sI8
g18
((lp3704
(I4
I0
I2
tp3705
a(I8
I6
I2
tp3706
a(I6
I0
I7
tp3707
a(I3
I4
I3
tp3708
a(I8
I3
I7
tp3709
atp3710
Rp3711
sI9
g18
((lp3712
(I0
I4
I2
tp3713
a(I6
I3
I8
tp3714
a(I0
I3
I5
tp3715
a(I6
I1
I2
tp3716
a(I8
I1
I8
tp3717
atp3718
Rp3719
ssg3468
F4.0
sg3469
F13.500793650793652
sg3470
I53
sg3471
F0.65599730458221028
sg3472
I0
sg3473
F0.075471698113207544
sg3474
(dp3720
I0
g18
((lp3721
tp3722
Rp3723
sI1
g18
((lp3724
(I5
I6
I7
tp3725
a(I2
I8
I8
tp3726
atp3727
Rp3728
sI2
g18
((lp3729
(I5
I4
I9
tp3730
a(I7
I7
I6
tp3731
a(I3
I8
I6
tp3732
a(I0
I8
I4
tp3733
a(I2
I7
I3
tp3734
atp3735
Rp3736
sI3
g18
((lp3737
(I2
I2
I2
tp3738
atp3739
Rp3740
sI4
g18
((lp3741
tp3742
Rp3743
sI5
g18
((lp3744
(I2
I3
I6
tp3745
atp3746
Rp3747
sI6
g18
((lp3748
(I5
I3
I1
tp3749
a(I0
I2
I3
tp3750
a(I1
I5
I3
tp3751
atp3752
Rp3753
sI7
g18
((lp3754
(I7
I6
I8
tp3755
a(I0
I5
I1
tp3756
a(I1
I0
I6
tp3757
atp3758
Rp3759
sI8
g18
((lp3760
(I4
I0
I2
tp3761
a(I8
I6
I2
tp3762
a(I8
I4
I5
tp3763
a(I3
I3
I2
tp3764
atp3765
Rp3766
sI9
g18
((lp3767
(I0
I4
I2
tp3768
a(I6
I3
I8
tp3769
a(I0
I3
I5
tp3770
a(I8
I1
I8
tp3771
atp3772
Rp3773
ssbtp3774
a(S'8 0 0 0 2 4 0 0 0 7 0 9 1 0 0 0 0 0 0 5 0 0 9 0 0 4 0 0 0 6 0 0 0 8 3 0 2 0 4 0 0 0 6 0 5 0 3 7 0 0 0 9 0 0 0 1 0 0 3 0 0 8 0 0 0 0 0 0 2 5 0 1 0 0 0 6 1 0 0 0 9'
p3775
(ignome_sudoku.sudoku
DifficultyRating
p3776
(dp3777
g3399
F2.0
sg3400
g8
(g9
g10
(lp3778
tp3779
Rp3780
sg3404
F0.037735849056603772
sg3405
F7.9452380952380945
sg3406
(dp3781
I0
g18
((lp3782
(I6
I8
I3
tp3783
a(I1
I4
I8
tp3784
a(I7
I0
I9
tp3785
a(I1
I1
I4
tp3786
atp3787
Rp3788
sI1
g18
((lp3789
(I2
I2
I2
tp3790
a(I1
I8
I2
tp3791
a(I7
I1
I5
tp3792
a(I3
I0
I5
tp3793
a(I6
I6
I4
tp3794
a(I0
I8
I4
tp3795
atp3796
Rp3797
sI2
g18
((lp3798
(I8
I6
I2
tp3799
a(I7
I8
I7
tp3800
a(I7
I5
I2
tp3801
a(I2
I0
I1
tp3802
a(I7
I7
I6
tp3803
a(I8
I3
I7
tp3804
atp3805
Rp3806
sI3
g18
((lp3807
(I3
I3
I2
tp3808
a(I0
I2
I3
tp3809
a(I2
I7
I3
tp3810
a(I8
I5
I4
tp3811
a(I6
I0
I7
tp3812
a(I8
I0
I3
tp3813
a(I0
I6
I6
tp3814
a(I6
I2
I1
tp3815
a(I5
I8
I5
tp3816
atp3817
Rp3818
sI4
g18
((lp3819
(I4
I3
I4
tp3820
a(I3
I7
I4
tp3821
a(I0
I7
I9
tp3822
a(I5
I1
I3
tp3823
a(I3
I4
I3
tp3824
atp3825
Rp3826
sI5
g18
((lp3827
(I5
I2
I8
tp3828
a(I0
I3
I5
tp3829
a(I4
I5
I5
tp3830
a(I4
I7
I8
tp3831
a(I3
I6
I9
tp3832
a(I0
I5
I1
tp3833
a(I5
I4
I9
tp3834
atp3835
Rp3836
sI6
g18
((lp3837
(I4
I1
I6
tp3838
a(I8
I1
I8
tp3839
a(I5
I6
I7
tp3840
a(I8
I2
I6
tp3841
atp3842
Rp3843
ssg3468
F4.0
sg3469
F13.988095238095237
sg3470
I53
sg3471
F0.58616352201257871
sg3472
I0
sg3473
F0.075471698113207544
sg3474
(dp3844
I0
g18
((lp3845
(I1
I3
I9
tp3846
a(I1
I0
I6
tp3847
atp3848
Rp3849
sI1
g18
((lp3850
(I4
I4
I7
tp3851
a(I6
I1
I2
tp3852
a(I1
I7
I7
tp3853
atp3854
Rp3855
sI2
g18
((lp3856
(I2
I6
I5
tp3857
a(I7
I4
I1
tp3858
a(I7
I7
I6
tp3859
a(I7
I8
I7
tp3860
atp3861
Rp3862
sI3
g18
((lp3863
(I0
I2
I3
tp3864
a(I8
I5
I4
tp3865
a(I6
I0
I7
tp3866
a(I2
I8
I8
tp3867
a(I8
I0
I3
tp3868
atp3869
Rp3870
sI4
g18
((lp3871
(I5
I3
I1
tp3872
a(I0
I7
I9
tp3873
a(I3
I5
I8
tp3874
atp3875
Rp3876
sI5
g18
((lp3877
(I4
I7
I8
tp3878
a(I0
I3
I5
tp3879
a(I5
I5
I6
tp3880
a(I3
I2
I7
tp3881
a(I5
I4
I9
tp3882
atp3883
Rp3884
sI6
g18
((lp3885
(I4
I1
I6
tp3886
a(I5
I6
I7
tp3887
a(I8
I2
I6
tp3888
atp3889
Rp3890
ssbtp3891
a(S'0 0 1 0 2 0 0 0 0 0 0 9 0 6 3 0 0 0 3 0 0 0 0 8 1 4 0 0 9 0 0 0 0 8 3 0 0 0 4 0 7 0 6 0 0 0 3 7 0 0 0 0 2 0 0 1 5 9 0 0 0 0 2 0 0 0 4 8 0 5 0 0 0 0 0 0 1 0 3 0 0'
p3892
(ignome_sudoku.sudoku
DifficultyRating
p3893
(dp3894
g3399
F1.0
sg3400
g8
(g9
g10
(lp3895
(ignome_sudoku.sudoku
Guess
p3896
(dp3897
S'y'
p3898
I6
sS'x'
p3899
I6
sS'consequences'
p3900
(dp3901
(I5
I6
tp3902
I6
s(I7
I7
tp3903
I1
s(I0
I7
tp3904
I2
s(I8
I5
tp3905
I1
s(I1
I2
tp3906
I2
s(I3
I8
tp3907
I2
s(I3
I3
tp3908
I6
s(I3
I0
tp3909
I5
s(I0
I4
tp3910
I1
s(I1
I1
tp3911
I4
s(I5
I4
tp3912
I2
s(I0
I0
tp3913
I8
s(I8
I2
tp3914
I6
s(I7
I1
tp3915
I5
s(I2
I2
tp3916
I6
s(I6
I0
tp3917
I9
s(I2
I3
tp3918
I2
s(I8
I7
tp3919
I9
s(I6
I5
tp3920
I4
s(I5
I5
tp3921
I9
s(I0
I1
tp3922
I7
s(I7
I0
tp3923
I7
s(I5
I7
tp3924
I7
s(I7
I4
tp3925
I9
s(I0
I6
tp3926
I4
s(I8
I8
tp3927
I4
s(I0
I5
tp3928
I6
s(I8
I4
tp3929
I5
ssS'children'
p3930
(lp3931
sS'val'
p3932
I7
sba(ignome_sudoku.sudoku
Guess
p3933
(dp3934
g3898
I6
sg3899
I6
sg3900
(dp3935
(I3
I0
tp3936
I5
s(I7
I7
tp3937
I6
s(I0
I7
tp3938
I9
s(I8
I5
tp3939
I4
s(I1
I2
tp3940
I5
s(I3
I8
tp3941
I6
s(I5
I5
tp3942
I6
s(I5
I6
tp3943
I7
s(I2
I2
tp3944
I2
s(I1
I1
tp3945
I4
s(I3
I2
tp3946
I7
s(I0
I0
tp3947
I8
s(I8
I2
tp3948
I6
s(I7
I1
tp3949
I5
s(I0
I4
tp3950
I2
s(I6
I0
tp3951
I7
s(I1
I4
tp3952
I8
s(I2
I3
tp3953
I6
s(I8
I7
tp3954
I1
s(I5
I4
tp3955
I9
s(I1
I0
tp3956
I6
s(I0
I8
tp3957
I4
s(I6
I5
tp3958
I9
s(I3
I3
tp3959
I2
s(I0
I1
tp3960
I7
s(I7
I0
tp3961
I9
s(I5
I7
tp3962
I2
s(I7
I4
tp3963
I1
s(I0
I6
tp3964
I6
s(I1
I8
tp3965
I2
s(I8
I8
tp3966
I9
s(I1
I7
tp3967
I7
s(I0
I5
tp3968
I1
s(I7
I8
tp3969
I7
s(I8
I4
tp3970
I5
ssg3930
(lp3971
sg3932
I4
sbatp3972
Rp3973
sg3404
F0.018518518518518517
sg3405
F1.3333333333333333
sg3406
(dp3974
I0
g18
((lp3975
(I4
I6
I3
tp3976
a(I5
I0
I4
tp3977
a(I3
I4
I3
tp3978
a(I3
I1
I1
tp3979
a(I6
I1
I2
tp3980
a(I2
I7
I3
tp3981
a(I8
I3
I7
tp3982
a(I8
I0
I3
tp3983
a(I2
I8
I8
tp3984
atp3985
Rp3986
sI1
g18
((lp3987
(I4
I3
I4
tp3988
a(I7
I6
I8
tp3989
a(I8
I1
I8
tp3990
a(I4
I2
I9
tp3991
a(I3
I5
I8
tp3992
atp3993
Rp3994
sI2
g18
((lp3995
(I4
I5
I5
tp3996
atp3997
Rp3998
sI3
g18
((lp3999
(I0
I3
I5
tp4000
a(I5
I8
I5
tp4001
atp4002
Rp4003
sI4
g18
((lp4004
(I5
I3
I1
tp4005
atp4006
Rp4007
ssg3468
F9.0
sg3469
F12.533333333333333
sg3470
I54
sg3471
F0.74320987654320991
sg3472
I0
sg3473
F0.16666666666666666
sg3474
(dp4008
I0
g18
((lp4009
(I4
I6
I3
tp4010
atp4011
Rp4012
sI1
g18
((lp4013
tp4014
Rp4015
sI2
g18
((lp4016
(I4
I5
I5
tp4017
atp4018
Rp4019
sI3
g18
((lp4020
tp4021
Rp4022
sI4
g18
((lp4023
tp4024
Rp4025
ssbtp4026
a(S'0 6 0 5 0 4 7 0 3 0 0 9 0 0 0 0 5 0 3 0 2 0 9 0 0 0 0 5 0 6 0 0 0 8 0 0 0 8 0 0 0 0 0 1 0 0 0 7 0 0 0 9 0 4 0 0 0 0 3 0 4 0 2 0 7 0 0 0 0 5 0 0 4 0 8 6 0 5 0 7 0'
p4027
(ignome_sudoku.sudoku
DifficultyRating
p4028
(dp4029
g3399
F2.0
sg3400
g8
(g9
g10
(lp4030
tp4031
Rp4032
sg3404
F0.037735849056603772
sg3405
F5.650793650793652
sg3406
(dp4033
I0
g18
((lp4034
(I0
I1
I7
tp4035
a(I1
I1
I4
tp4036
a(I2
I6
I5
tp4037
a(I7
I0
I9
tp4038
a(I1
I2
I5
tp4039
a(I7
I2
I4
tp4040
a(I8
I4
I5
tp4041
a(I2
I4
I4
tp4042
a(I4
I5
I5
tp4043
atp4044
Rp4045
sI1
g18
((lp4046
(I4
I0
I2
tp4047
a(I4
I4
I7
tp4048
a(I0
I0
I8
tp4049
a(I6
I1
I2
tp4050
a(I2
I7
I3
tp4051
atp4052
Rp4053
sI2
g18
((lp4054
(I4
I1
I6
tp4055
a(I6
I8
I3
tp4056
a(I1
I8
I2
tp4057
atp4058
Rp4059
sI3
g18
((lp4060
(I4
I7
I8
tp4061
a(I6
I2
I1
tp4062
a(I8
I7
I1
tp4063
a(I8
I8
I9
tp4064
atp4065
Rp4066
sI4
g18
((lp4067
(I7
I6
I8
tp4068
a(I3
I7
I4
tp4069
a(I5
I5
I6
tp4070
a(I8
I2
I6
tp4071
atp4072
Rp4073
sI5
g18
((lp4074
(I0
I6
I6
tp4075
a(I5
I7
I2
tp4076
a(I5
I2
I8
tp4077
a(I3
I5
I8
tp4078
atp4079
Rp4080
sI6
g18
((lp4081
(I5
I6
I7
tp4082
a(I1
I3
I9
tp4083
a(I1
I6
I1
tp4084
a(I3
I2
I7
tp4085
a(I0
I5
I1
tp4086
atp4087
Rp4088
sI7
g18
((lp4089
(I3
I3
I2
tp4090
a(I3
I6
I9
tp4091
a(I1
I5
I3
tp4092
a(I7
I5
I2
tp4093
a(I5
I4
I9
tp4094
atp4095
Rp4096
sI8
g18
((lp4097
(I5
I3
I1
tp4098
a(I3
I1
I1
tp4099
a(I3
I4
I3
tp4100
a(I7
I3
I3
tp4101
atp4102
Rp4103
sI9
g18
((lp4104
(I5
I1
I3
tp4105
atp4106
Rp4107
ssg3468
F9.0
sg3469
F16.850396825396825
sg3470
I53
sg3471
F0.57544923629829281
sg3472
I0
sg3473
F0.16981132075471697
sg3474
(dp4108
I0
g18
((lp4109
(I8
I3
I7
tp4110
a(I2
I0
I1
tp4111
atp4112
Rp4113
sI1
g18
((lp4114
(I0
I0
I8
tp4115
a(I2
I7
I3
tp4116
atp4117
Rp4118
sI2
g18
((lp4119
(I4
I8
I1
tp4120
atp4121
Rp4122
sI3
g18
((lp4123
(I4
I3
I4
tp4124
a(I8
I8
I9
tp4125
a(I6
I4
I6
tp4126
atp4127
Rp4128
sI4
g18
((lp4129
(I8
I1
I8
tp4130
a(I7
I7
I6
tp4131
atp4132
Rp4133
sI5
g18
((lp4134
(I0
I7
I9
tp4135
atp4136
Rp4137
sI6
g18
((lp4138
(I0
I4
I2
tp4139
a(I3
I2
I7
tp4140
a(I1
I6
I1
tp4141
atp4142
Rp4143
sI7
g18
((lp4144
(I3
I6
I9
tp4145
a(I1
I5
I3
tp4146
atp4147
Rp4148
sI8
g18
((lp4149
(I3
I4
I3
tp4150
a(I7
I3
I3
tp4151
atp4152
Rp4153
sI9
g18
((lp4154
(I5
I1
I3
tp4155
atp4156
Rp4157
ssbtp4158
a(S'0 0 0 0 2 0 0 9 0 0 0 0 0 6 3 0 0 8 3 0 0 0 0 8 1 4 0 0 0 0 0 4 0 8 0 7 0 8 4 0 0 0 6 1 0 1 0 7 0 5 0 0 0 0 0 1 5 9 0 0 0 0 2 9 0 0 4 8 0 0 0 0 0 2 0 0 1 0 0 0 0'
p4159
(ignome_sudoku.sudoku
DifficultyRating
p4160
(dp4161
g3399
F0.0
sg3400
g8
(g9
g10
(lp4162
(ignome_sudoku.sudoku
Guess
p4163
(dp4164
g3898
I6
sg3899
I5
sg3900
(dp4165
(I7
I3
tp4166
I3
s(I6
I6
tp4167
I4
s(I3
I0
tp4168
I5
s(I8
I0
tp4169
I3
s(I7
I7
tp4170
I6
s(I0
I3
tp4171
I5
s(I8
I5
tp4172
I4
s(I1
I2
tp4173
I5
s(I6
I7
tp4174
I5
s(I5
I5
tp4175
I6
s(I4
I4
tp4176
I7
s(I1
I5
tp4177
I3
s(I0
I4
tp4178
I2
s(I2
I7
tp4179
I3
s(I5
I4
tp4180
I9
s(I3
I2
tp4181
I7
s(I8
I2
tp4182
I6
s(I7
I1
tp4183
I5
s(I6
I0
tp4184
I7
s(I7
I5
tp4185
I2
s(I2
I3
tp4186
I6
s(I6
I8
tp4187
I3
s(I1
I0
tp4188
I6
s(I0
I8
tp4189
I4
s(I6
I5
tp4190
I9
s(I3
I3
tp4191
I2
s(I0
I1
tp4192
I7
s(I4
I6
tp4193
I3
s(I3
I4
tp4194
I3
s(I6
I1
tp4195
I2
s(I3
I8
tp4196
I6
s(I0
I6
tp4197
I6
s(I8
I8
tp4198
I9
s(I1
I7
tp4199
I7
s(I7
I8
tp4200
I7
s(I8
I4
tp4201
I5
ssg3930
(lp4202
sg3932
I7
sba(ignome_sudoku.sudoku
Guess
p4203
(dp4204
g3898
I6
sg3899
I5
sg3900
(dp4205
(I5
I4
tp4206
I7
s(I3
I3
tp4207
I6
s(I5
I5
tp4208
I9
s(I1
I5
tp4209
I6
s(I6
I8
tp4210
I9
s(I8
I4
tp4211
I9
ssg3930
(lp4212
(ignome_sudoku.sudoku
Guess
p4213
(dp4214
g3898
I4
sg3899
I4
sg3900
(dp4215
(I0
I8
tp4216
I6
s(I1
I7
tp4217
I3
ssg3930
(lp4218
sg3932
I3
sbasg3932
I6
sbatp4219
Rp4220
sg3404
F0.0
sg3405
F0.0
sg3406
(dp4221
I0
g18
((lp4222
(I5
I0
I4
tp4223
a(I2
I2
I2
tp4224
a(I8
I7
I1
tp4225
a(I4
I2
I9
tp4226
a(I5
I7
I2
tp4227
a(I3
I5
I8
tp4228
atp4229
Rp4230
sI1
g18
((lp4231
(I5
I3
I1
tp4232
a(I1
I1
I4
tp4233
a(I5
I8
I5
tp4234
atp4235
Rp4236
sI2
g18
((lp4237
(I2
I1
I9
tp4238
atp4239
Rp4240
sI3
g18
((lp4241
(I3
I1
I1
tp4242
a(I1
I3
I9
tp4243
a(I2
I0
I1
tp4244
atp4245
Rp4246
sI4
g18
((lp4247
(I0
I0
I8
tp4248
a(I2
I8
I8
tp4249
atp4250
Rp4251
sI5
g18
((lp4252
(I7
I6
I8
tp4253
atp4254
Rp4255
ssg3468
F6.0
sg3469
F9.1499999999999986
sg3470
I53
sg3471
F0.82735849056603783
sg3472
I1
sg3473
F0.11320754716981132
sg3474
(dp4256
I0
g18
((lp4257
tp4258
Rp4259
sI1
g18
((lp4260
tp4261
Rp4262
sI2
g18
((lp4263
tp4264
Rp4265
sI3
g18
((lp4266
tp4267
Rp4268
sI4
g18
((lp4269
tp4270
Rp4271
sI5
g18
((lp4272
tp4273
Rp4274
ssbtp4275
a(S'8 0 1 0 0 4 0 0 0 0 0 0 0 6 0 0 5 0 3 0 2 7 0 0 0 0 6 0 9 0 0 4 0 0 0 7 2 0 0 3 0 9 0 0 5 1 0 0 0 5 0 0 2 0 6 0 0 0 0 7 4 0 2 0 7 0 0 8 0 0 0 0 0 0 0 6 0 0 3 0 9'
p4276
(ignome_sudoku.sudoku
DifficultyRating
p4277
(dp4278
g3399
F5.0
sg3400
g8
(g9
g10
(lp4279
tp4280
Rp4281
sg3404
F0.094339622641509441
sg3405
F14.833333333333334
sg3406
(dp4282
I0
g18
((lp4283
(I1
I8
I2
tp4284
a(I6
I5
I9
tp4285
a(I7
I8
I7
tp4286
a(I0
I1
I7
tp4287
a(I6
I7
I5
tp4288
a(I1
I0
I6
tp4289
a(I3
I7
I4
tp4290
a(I4
I4
I7
tp4291
a(I2
I5
I7
tp4292
atp4293
Rp4294
sI1
g18
((lp4295
(I4
I6
I3
tp4296
a(I7
I6
I8
tp4297
a(I5
I5
I6
tp4298
a(I1
I5
I3
tp4299
a(I0
I7
I9
tp4300
a(I8
I1
I8
tp4301
a(I1
I6
I1
tp4302
a(I5
I7
I2
tp4303
a(I2
I4
I4
tp4304
a(I8
I5
I4
tp4305
a(I2
I1
I9
tp4306
a(I7
I3
I3
tp4307
a(I3
I0
I5
tp4308
a(I1
I2
I5
tp4309
a(I4
I0
I2
tp4310
a(I7
I2
I4
tp4311
a(I6
I0
I7
tp4312
a(I7
I7
I6
tp4313
a(I5
I1
I3
tp4314
a(I2
I8
I8
tp4315
a(I0
I8
I4
tp4316
atp4317
Rp4318
sI2
g18
((lp4319
(I5
I2
I8
tp4320
a(I4
I2
I9
tp4321
a(I3
I3
I2
tp4322
a(I2
I3
I6
tp4323
a(I6
I1
I2
tp4324
a(I2
I7
I3
tp4325
a(I2
I6
I5
tp4326
a(I7
I4
I1
tp4327
a(I6
I3
I8
tp4328
a(I3
I6
I9
tp4329
a(I5
I8
I5
tp4330
a(I6
I4
I6
tp4331
atp4332
Rp4333
sI3
g18
((lp4334
tp4335
Rp4336
sI4
g18
((lp4337
tp4338
Rp4339
ssg3468
F9.0
sg3469
F23.5
sg3470
I53
sg3471
F0.27672955974842767
sg3472
I0
sg3473
F0.16981132075471697
sg3474
(dp4340
I0
g18
((lp4341
(I3
I5
I8
tp4342
a(I8
I7
I1
tp4343
a(I1
I1
I4
tp4344
a(I8
I0
I3
tp4345
a(I0
I3
I5
tp4346
atp4347
Rp4348
sI1
g18
((lp4349
(I7
I6
I8
tp4350
a(I5
I5
I6
tp4351
a(I1
I5
I3
tp4352
a(I2
I1
I9
tp4353
a(I8
I1
I8
tp4354
a(I1
I4
I8
tp4355
a(I8
I5
I4
tp4356
a(I0
I7
I9
tp4357
a(I7
I0
I9
tp4358
a(I4
I8
I1
tp4359
a(I7
I7
I6
tp4360
a(I1
I2
I5
tp4361
a(I0
I8
I4
tp4362
atp4363
Rp4364
sI2
g18
((lp4365
(I5
I3
I1
tp4366
a(I3
I1
I1
tp4367
a(I4
I2
I9
tp4368
a(I2
I3
I6
tp4369
a(I2
I7
I3
tp4370
a(I2
I6
I5
tp4371
a(I7
I4
I1
tp4372
a(I3
I6
I9
tp4373
a(I6
I2
I1
tp4374
a(I5
I8
I5
tp4375
atp4376
Rp4377
sI3
g18
((lp4378
tp4379
Rp4380
sI4
g18
((lp4381
tp4382
Rp4383
ssbtp4384
asS'7 1 8 4 2 5 3 6 9 3 9 2 1 6 8 5 4 7 4 6 5 7 9 3 2 1 8 5 7 3 8 1 2 4 9 6 8 4 9 3 7 6 1 2 5 6 2 1 9 5 4 8 7 3 9 8 7 2 3 1 6 5 4 2 5 4 6 8 9 7 3 1 1 3 6 5 4 7 9 8 2'
p4385
(lp4386
sS'5 9 8 7 6 2 3 1 4 6 3 7 1 5 4 9 8 2 4 2 1 8 3 9 6 7 5 3 5 9 6 1 8 4 2 7 8 4 6 9 2 7 1 5 3 1 7 2 5 4 3 8 9 6 2 8 3 4 9 5 7 6 1 9 1 5 3 7 6 2 4 8 7 6 4 2 8 1 5 3 9'
p4387
(lp4388
(S'0 0 0 0 0 0 0 0 0 0 3 0 1 5 0 0 0 2 4 0 0 0 0 9 6 7 0 0 5 0 6 1 0 0 0 0 0 0 6 9 2 7 1 0 0 0 0 0 0 4 3 0 9 0 0 8 3 4 0 0 0 0 1 9 0 0 0 7 6 0 4 0 0 0 0 0 0 0 0 0 0'
p4389
(ignome_sudoku.sudoku
DifficultyRating
p4390
(dp4391
S'instant_elimination_fillable'
p4392
F4.0
sS'guesses'
p4393
g8
(g9
g10
(lp4394
(ignome_sudoku.sudoku
Guess
p4395
(dp4396
S'y'
p4397
I3
sS'x'
p4398
I7
sS'consequences'
p4399
(dp4400
(I8
I7
tp4401
I3
s(I0
I4
tp4402
I3
s(I0
I3
tp4403
I2
s(I7
I8
tp4404
I2
s(I2
I5
tp4405
I8
s(I6
I5
tp4406
I2
s(I8
I4
tp4407
I8
ssS'children'
p4408
(lp4409
(ignome_sudoku.sudoku
Guess
p4410
(dp4411
g4397
I6
sg4398
I6
sg4399
(dp4412
(I3
I7
tp4413
I2
s(I0
I8
tp4414
I7
s(I0
I0
tp4415
I8
s(I2
I0
tp4416
I5
ssg4408
(lp4417
sS'val'
p4418
I7
sbasg4418
I3
sba(ignome_sudoku.sudoku
Guess
p4419
(dp4420
g4397
I3
sg4398
I7
sg4399
(dp4421
(I4
I8
tp4422
I8
s(I3
I7
tp4423
I3
s(I0
I3
tp4424
I3
s(I2
I5
tp4425
I2
s(I1
I2
tp4426
I2
s(I6
I7
tp4427
I2
s(I2
I0
tp4428
I8
s(I6
I6
tp4429
I7
s(I0
I4
tp4430
I8
s(I3
I2
tp4431
I8
s(I0
I0
tp4432
I5
s(I2
I2
tp4433
I1
s(I8
I7
tp4434
I8
s(I4
I2
tp4435
I3
s(I0
I8
tp4436
I7
s(I6
I5
tp4437
I8
s(I2
I7
tp4438
I5
s(I6
I8
tp4439
I5
s(I3
I8
tp4440
I2
s(I0
I6
tp4441
I2
s(I1
I7
tp4442
I1
s(I7
I8
tp4443
I3
s(I8
I4
tp4444
I3
ssg4408
(lp4445
sg4418
I2
sbatp4446
Rp4447
sS'proportion_instant_elimination_fillable'
p4448
F0.07407407407407407
sS'elimination_ease'
p4449
F5.5
sS'fill_must_fillables'
p4450
(dp4451
I0
g18
((lp4452
(I8
I5
I6
tp4453
a(I3
I0
I7
tp4454
a(I0
I1
I6
tp4455
a(I2
I3
I9
tp4456
a(I7
I0
I1
tp4457
a(I4
I0
I6
tp4458
a(I1
I0
I9
tp4459
a(I5
I8
I1
tp4460
a(I3
I5
I5
tp4461
atp4462
Rp4463
sI1
g18
((lp4464
(I2
I1
I7
tp4465
a(I7
I6
I6
tp4466
a(I6
I1
I9
tp4467
a(I2
I8
I4
tp4468
a(I8
I8
I9
tp4469
a(I5
I6
I5
tp4470
a(I0
I5
I1
tp4471
a(I1
I8
I6
tp4472
atp4473
Rp4474
sI2
g18
((lp4475
(I1
I5
I7
tp4476
a(I8
I3
I7
tp4477
a(I5
I0
I2
tp4478
atp4479
Rp4480
sI3
g18
((lp4481
(I6
I3
I4
tp4482
a(I8
I0
I4
tp4483
atp4484
Rp4485
sI4
g18
((lp4486
(I6
I0
I3
tp4487
atp4488
Rp4489
sI5
g18
((lp4490
(I8
I2
I5
tp4491
atp4492
Rp4493
sI6
g18
((lp4494
(I7
I4
I5
tp4495
atp4496
Rp4497
ssS'instant_fill_fillable'
p4498
F9.0
sS'fillable_ease'
p4499
F15.009523809523808
sS'squares_filled'
p4500
I54
sS'value'
p4501
F0.62019400352733689
sS'backtraces'
p4502
I1
sS'proportion_instant_fill_fillable'
p4503
F0.16666666666666666
sS'elimination_fillables'
p4504
(dp4505
I0
g18
((lp4506
(I1
I4
I4
tp4507
a(I4
I6
I9
tp4508
a(I7
I1
I8
tp4509
a(I5
I3
I8
tp4510
atp4511
Rp4512
sI1
g18
((lp4513
(I2
I1
I7
tp4514
a(I5
I1
I4
tp4515
atp4516
Rp4517
sI2
g18
((lp4518
(I5
I0
I2
tp4519
atp4520
Rp4521
sI3
g18
((lp4522
tp4523
Rp4524
sI4
g18
((lp4525
tp4526
Rp4527
sI5
g18
((lp4528
(I8
I2
I5
tp4529
atp4530
Rp4531
sI6
g18
((lp4532
tp4533
Rp4534
ssbtp4535
asS'9 6 8 2 7 1 3 5 4 2 5 1 3 6 4 8 9 7 7 3 4 9 5 8 2 6 1 8 9 3 6 2 7 1 4 5 4 1 5 8 9 3 7 2 6 6 2 7 4 1 5 9 3 8 3 8 9 1 4 6 5 7 2 1 7 6 5 3 2 4 8 9 5 4 2 7 8 9 6 1 3'
p4536
(lp4537
sS'6 1 3 4 7 8 2 5 9 7 2 8 5 1 9 4 6 3 4 5 9 6 3 2 8 7 1 2 6 1 9 4 7 3 8 5 9 3 5 1 8 6 7 2 4 8 7 4 2 5 3 1 9 6 1 9 6 7 2 4 5 3 8 5 8 2 3 9 1 6 4 7 3 4 7 8 6 5 9 1 2'
p4538
(lp4539
(S'0 0 3 0 0 8 0 5 0 0 0 0 0 1 9 4 0 0 0 5 0 6 3 0 0 0 0 2 0 1 0 0 7 0 0 5 9 0 0 0 0 0 0 0 4 8 0 0 2 0 0 1 0 6 0 0 0 0 2 4 0 3 0 0 0 2 3 9 0 0 0 0 0 4 0 8 0 0 9 0 0'
p4540
(ignome_sudoku.sudoku
DifficultyRating
p4541
(dp4542
S'instant_elimination_fillable'
p4543
F1.0
sS'guesses'
p4544
g8
(g9
g10
(lp4545
tp4546
Rp4547
sS'proportion_instant_elimination_fillable'
p4548
F0.018867924528301886
sS'elimination_ease'
p4549
F6.7452380952380953
sS'fill_must_fillables'
p4550
(dp4551
I0
g18
((lp4552
(I2
I5
I4
tp4553
a(I0
I8
I3
tp4554
a(I8
I1
I3
tp4555
a(I3
I1
I5
tp4556
a(I3
I3
I9
tp4557
a(I7
I7
I4
tp4558
a(I7
I5
I9
tp4559
a(I5
I2
I2
tp4560
atp4561
Rp4562
sI1
g18
((lp4563
(I4
I3
I4
tp4564
a(I1
I5
I7
tp4565
a(I0
I2
I4
tp4566
a(I3
I0
I4
tp4567
a(I2
I4
I5
tp4568
atp4569
Rp4570
sI2
g18
((lp4571
(I5
I5
I3
tp4572
a(I1
I3
I6
tp4573
a(I4
I0
I7
tp4574
a(I4
I4
I8
tp4575
a(I3
I6
I7
tp4576
a(I5
I8
I5
tp4577
atp4578
Rp4579
sI3
g18
((lp4580
(I5
I7
I1
tp4581
a(I1
I4
I3
tp4582
a(I5
I4
I6
tp4583
a(I4
I8
I6
tp4584
atp4585
Rp4586
sI4
g18
((lp4587
(I7
I1
I6
tp4588
atp4589
Rp4590
sI5
g18
((lp4591
(I1
I1
I2
tp4592
a(I2
I6
I6
tp4593
a(I0
I1
I7
tp4594
a(I2
I1
I8
tp4595
a(I0
I0
I6
tp4596
atp4597
Rp4598
sI6
g18
((lp4599
(I1
I6
I9
tp4600
a(I1
I0
I1
tp4601
a(I2
I2
I9
tp4602
a(I7
I4
I2
tp4603
a(I8
I8
I2
tp4604
a(I0
I6
I1
tp4605
a(I6
I7
I6
tp4606
atp4607
Rp4608
sI7
g18
((lp4609
(I7
I2
I7
tp4610
a(I8
I2
I1
tp4611
a(I6
I6
I5
tp4612
a(I8
I0
I9
tp4613
a(I7
I8
I1
tp4614
atp4615
Rp4616
ssS'instant_fill_fillable'
p4617
F8.0
sS'fillable_ease'
p4618
F16.158333333333331
sS'squares_filled'
p4619
I53
sS'value'
p4620
F0.56785714285714284
sS'backtraces'
p4621
I0
sS'proportion_instant_fill_fillable'
p4622
F0.15094339622641509
sS'elimination_fillables'
p4623
(dp4624
I0
g18
((lp4625
(I5
I2
I2
tp4626
atp4627
Rp4628
sI1
g18
((lp4629
(I4
I5
I5
tp4630
a(I3
I4
I1
tp4631
a(I7
I3
I8
tp4632
atp4633
Rp4634
sI2
g18
((lp4635
(I5
I5
I3
tp4636
a(I3
I6
I7
tp4637
a(I4
I0
I7
tp4638
a(I6
I3
I3
tp4639
atp4640
Rp4641
sI3
g18
((lp4642
(I4
I8
I6
tp4643
a(I5
I4
I6
tp4644
a(I1
I4
I3
tp4645
atp4646
Rp4647
sI4
g18
((lp4648
(I2
I8
I7
tp4649
a(I1
I7
I8
tp4650
atp4651
Rp4652
sI5
g18
((lp4653
(I6
I0
I2
tp4654
a(I8
I7
I7
tp4655
a(I0
I1
I7
tp4656
a(I2
I1
I8
tp4657
a(I1
I1
I2
tp4658
atp4659
Rp4660
sI6
g18
((lp4661
(I6
I4
I7
tp4662
a(I2
I2
I9
tp4663
a(I0
I7
I5
tp4664
atp4665
Rp4666
sI7
g18
((lp4667
(I6
I2
I8
tp4668
a(I8
I0
I9
tp4669
a(I8
I6
I8
tp4670
a(I7
I8
I1
tp4671
atp4672
Rp4673
ssbtp4674
asS'8 9 1 3 7 6 4 2 5 3 6 7 2 5 4 8 9 1 2 4 5 1 9 8 7 6 3 5 1 8 7 2 9 3 4 6 4 7 9 6 3 5 1 8 2 6 3 2 8 4 1 5 7 9 9 2 4 5 1 7 6 3 8 1 8 3 4 6 2 9 5 7 7 5 6 9 8 3 2 1 4'
p4675
(lp4676
(S'0 9 0 3 7 0 0 0 5 3 0 0 0 0 4 0 9 1 0 4 0 1 0 0 0 6 0 0 0 0 0 0 9 0 0 0 4 0 0 6 0 5 0 0 2 0 0 0 8 0 0 0 0 0 0 2 0 0 0 7 0 3 0 1 8 0 4 0 0 0 0 7 7 0 0 0 8 3 0 1 0'
p4677
(ignome_sudoku.sudoku
DifficultyRating
p4678
(dp4679
S'instant_elimination_fillable'
p4680
F0.0
sS'guesses'
p4681
g8
(g9
g10
(lp4682
tp4683
Rp4684
sS'proportion_instant_elimination_fillable'
p4685
F0.0
sS'elimination_ease'
p4686
F2.8428682428682426
sS'fill_must_fillables'
p4687
(dp4688
I0
g18
((lp4689
(I4
I2
I9
tp4690
a(I4
I6
I1
tp4691
a(I2
I7
I3
tp4692
a(I5
I5
I1
tp4693
a(I2
I0
I1
tp4694
a(I3
I3
I7
tp4695
atp4696
Rp4697
sI1
g18
((lp4698
(I6
I7
I9
tp4699
atp4700
Rp4701
sI2
g18
((lp4702
(I2
I4
I9
tp4703
a(I8
I5
I9
tp4704
atp4705
Rp4706
sI3
g18
((lp4707
(I3
I8
I9
tp4708
a(I0
I6
I9
tp4709
atp4710
Rp4711
sI4
g18
((lp4712
(I3
I1
I2
tp4713
a(I6
I8
I2
tp4714
atp4715
Rp4716
sI5
g18
((lp4717
(I4
I1
I5
tp4718
a(I7
I0
I2
tp4719
a(I5
I7
I2
tp4720
a(I7
I7
I5
tp4721
atp4722
Rp4723
sI6
g18
((lp4724
(I5
I0
I6
tp4725
a(I6
I0
I4
tp4726
a(I4
I7
I6
tp4727
atp4728
Rp4729
sI7
g18
((lp4730
(I6
I1
I8
tp4731
a(I0
I0
I8
tp4732
atp4733
Rp4734
sI8
g18
((lp4735
(I7
I4
I8
tp4736
a(I8
I6
I8
tp4737
a(I2
I3
I8
tp4738
atp4739
Rp4740
sI9
g18
((lp4741
(I1
I4
I7
tp4742
a(I8
I8
I4
tp4743
a(I1
I3
I1
tp4744
a(I8
I3
I6
tp4745
a(I7
I5
I7
tp4746
a(I2
I6
I4
tp4747
atp4748
Rp4749
sI10
g18
((lp4750
(I0
I5
I6
tp4751
a(I2
I1
I7
tp4752
a(I1
I5
I3
tp4753
a(I4
I5
I4
tp4754
a(I6
I3
I3
tp4755
atp4756
Rp4757
sI11
g18
((lp4758
(I0
I3
I5
tp4759
a(I0
I2
I2
tp4760
a(I1
I8
I5
tp4761
a(I2
I8
I6
tp4762
a(I2
I5
I2
tp4763
a(I6
I5
I5
tp4764
atp4765
Rp4766
sI12
g18
((lp4767
(I2
I2
I5
tp4768
atp4769
Rp4770
ssS'instant_fill_fillable'
p4771
F6.0
sS'fillable_ease'
p4772
F11.376706626706627
sS'squares_filled'
p4773
I53
sS'value'
p4774
F0.73170613453632327
sS'backtraces'
p4775
I0
sS'proportion_instant_fill_fillable'
p4776
F0.11320754716981132
sS'elimination_fillables'
p4777
(dp4778
I0
g18
((lp4779
tp4780
Rp4781
sI1
g18
((lp4782
(I4
I4
I3
tp4783
atp4784
Rp4785
sI2
g18
((lp4786
tp4787
Rp4788
sI3
g18
((lp4789
tp4790
Rp4791
sI4
g18
((lp4792
(I3
I6
I5
tp4793
atp4794
Rp4795
sI5
g18
((lp4796
(I5
I2
I8
tp4797
a(I7
I7
I5
tp4798
atp4799
Rp4800
sI6
g18
((lp4801
(I8
I2
I3
tp4802
a(I5
I0
I6
tp4803
a(I4
I7
I6
tp4804
atp4805
Rp4806
sI7
g18
((lp4807
(I6
I2
I7
tp4808
a(I0
I0
I8
tp4809
atp4810
Rp4811
sI8
g18
((lp4812
(I6
I6
I6
tp4813
a(I6
I4
I1
tp4814
atp4815
Rp4816
sI9
g18
((lp4817
(I7
I3
I4
tp4818
a(I2
I6
I4
tp4819
a(I1
I4
I7
tp4820
a(I8
I8
I4
tp4821
atp4822
Rp4823
sI10
g18
((lp4824
(I1
I1
I6
tp4825
a(I4
I3
I2
tp4826
atp4827
Rp4828
sI11
g18
((lp4829
(I0
I3
I5
tp4830
a(I1
I8
I5
tp4831
a(I6
I5
I5
tp4832
atp4833
Rp4834
sI12
g18
((lp4835
(I2
I2
I5
tp4836
atp4837
Rp4838
ssbtp4839
as.